ARM GAS  C:\Users\LIUX\AppData\Local\Temp\ccDQEpUA.s 			page 1


   1              		.syntax unified
   2              		.cpu cortex-m3
   3              		.fpu softvfp
   4              		.eabi_attribute 20, 1
   5              		.eabi_attribute 21, 1
   6              		.eabi_attribute 23, 3
   7              		.eabi_attribute 24, 1
   8              		.eabi_attribute 25, 1
   9              		.eabi_attribute 26, 1
  10              		.eabi_attribute 30, 1
  11              		.eabi_attribute 34, 1
  12              		.eabi_attribute 18, 4
  13              		.thumb
  14              		.syntax unified
  15              		.file	"I2C_Interface.c"
  16              		.text
  17              	.Ltext0:
  18              		.cfi_sections	.debug_frame
  19              		.section	.text.I2C_Peripheral_Start,"ax",%progbits
  20              		.align	2
  21              		.global	I2C_Peripheral_Start
  22              		.thumb
  23              		.thumb_func
  24              		.type	I2C_Peripheral_Start, %function
  25              	I2C_Peripheral_Start:
  26              	.LFB0:
  27              		.file 1 "I2C_Interface.c"
   1:I2C_Interface.c **** /*
   2:I2C_Interface.c **** * This file includes all the required source code to interface
   3:I2C_Interface.c **** * the I2C peripheral.
   4:I2C_Interface.c **** */
   5:I2C_Interface.c **** 
   6:I2C_Interface.c **** /**
   7:I2C_Interface.c **** *   \brief Value returned if device present on I2C bus.
   8:I2C_Interface.c **** */
   9:I2C_Interface.c **** #ifndef DEVICE_CONNECTED
  10:I2C_Interface.c ****     #define DEVICE_CONNECTED 1
  11:I2C_Interface.c **** #endif
  12:I2C_Interface.c **** 
  13:I2C_Interface.c **** /**
  14:I2C_Interface.c **** *   \brief Value returned if device not present on I2C bus.
  15:I2C_Interface.c **** */
  16:I2C_Interface.c **** #ifndef DEVICE_UNCONNECTED
  17:I2C_Interface.c ****     #define DEVICE_UNCONNECTED 0
  18:I2C_Interface.c **** #endif
  19:I2C_Interface.c **** 
  20:I2C_Interface.c **** #include "I2C_Interface.h" 
  21:I2C_Interface.c **** #include "I2C_Master.h"
  22:I2C_Interface.c **** 
  23:I2C_Interface.c ****     /**********************************************************************************************
  24:I2C_Interface.c ****     /*                                             PERIPHERAL START                                
  25:I2C_Interface.c ****     /**********************************************************************************************
  26:I2C_Interface.c **** 
  27:I2C_Interface.c ****     ErrorCode I2C_Peripheral_Start(void) 
  28:I2C_Interface.c ****     {
  28              		.loc 1 28 0
  29              		.cfi_startproc
ARM GAS  C:\Users\LIUX\AppData\Local\Temp\ccDQEpUA.s 			page 2


  30              		@ args = 0, pretend = 0, frame = 0
  31              		@ frame_needed = 0, uses_anonymous_args = 0
  32 0000 08B5     		push	{r3, lr}
  33              		.cfi_def_cfa_offset 8
  34              		.cfi_offset 3, -8
  35              		.cfi_offset 14, -4
  29:I2C_Interface.c ****         // Start I2C peripheral
  30:I2C_Interface.c ****         I2C_Master_Start();  
  36              		.loc 1 30 0
  37 0002 FFF7FEFF 		bl	I2C_Master_Start
  38              	.LVL0:
  31:I2C_Interface.c ****         
  32:I2C_Interface.c ****         // Return no error since start function does not return any error
  33:I2C_Interface.c ****         return NO_ERROR;
  34:I2C_Interface.c ****     }
  39              		.loc 1 34 0
  40 0006 0020     		movs	r0, #0
  41 0008 08BD     		pop	{r3, pc}
  42              		.cfi_endproc
  43              	.LFE0:
  44              		.size	I2C_Peripheral_Start, .-I2C_Peripheral_Start
  45 000a 00BF     		.section	.text.I2C_Peripheral_Stop,"ax",%progbits
  46              		.align	2
  47              		.global	I2C_Peripheral_Stop
  48              		.thumb
  49              		.thumb_func
  50              		.type	I2C_Peripheral_Stop, %function
  51              	I2C_Peripheral_Stop:
  52              	.LFB1:
  35:I2C_Interface.c ****     
  36:I2C_Interface.c ****     
  37:I2C_Interface.c ****     /**********************************************************************************************
  38:I2C_Interface.c ****     /*                                             PERIPHERAL STOP                                 
  39:I2C_Interface.c ****     /**********************************************************************************************
  40:I2C_Interface.c ****     
  41:I2C_Interface.c ****     ErrorCode I2C_Peripheral_Stop(void)
  42:I2C_Interface.c ****     {
  53              		.loc 1 42 0
  54              		.cfi_startproc
  55              		@ args = 0, pretend = 0, frame = 0
  56              		@ frame_needed = 0, uses_anonymous_args = 0
  57 0000 08B5     		push	{r3, lr}
  58              		.cfi_def_cfa_offset 8
  59              		.cfi_offset 3, -8
  60              		.cfi_offset 14, -4
  43:I2C_Interface.c ****         // Stop I2C peripheral
  44:I2C_Interface.c ****         I2C_Master_Stop();
  61              		.loc 1 44 0
  62 0002 FFF7FEFF 		bl	I2C_Master_Stop
  63              	.LVL1:
  45:I2C_Interface.c ****         // Return no error since stop function does not return any error
  46:I2C_Interface.c ****         return NO_ERROR;
  47:I2C_Interface.c ****     }
  64              		.loc 1 47 0
  65 0006 0020     		movs	r0, #0
  66 0008 08BD     		pop	{r3, pc}
  67              		.cfi_endproc
ARM GAS  C:\Users\LIUX\AppData\Local\Temp\ccDQEpUA.s 			page 3


  68              	.LFE1:
  69              		.size	I2C_Peripheral_Stop, .-I2C_Peripheral_Stop
  70 000a 00BF     		.section	.text.I2C_Peripheral_ReadRegister,"ax",%progbits
  71              		.align	2
  72              		.global	I2C_Peripheral_ReadRegister
  73              		.thumb
  74              		.thumb_func
  75              		.type	I2C_Peripheral_ReadRegister, %function
  76              	I2C_Peripheral_ReadRegister:
  77              	.LFB2:
  48:I2C_Interface.c ****     
  49:I2C_Interface.c ****     
  50:I2C_Interface.c ****     /**********************************************************************************************
  51:I2C_Interface.c ****     /*                                            READ SINGLE REGISTER                             
  52:I2C_Interface.c ****     /**********************************************************************************************
  53:I2C_Interface.c **** 
  54:I2C_Interface.c ****     ErrorCode I2C_Peripheral_ReadRegister(uint8_t device_address, 
  55:I2C_Interface.c ****                                           uint8_t register_address,
  56:I2C_Interface.c ****                                           uint8_t* data)
  57:I2C_Interface.c ****     {
  78              		.loc 1 57 0
  79              		.cfi_startproc
  80              		@ args = 0, pretend = 0, frame = 0
  81              		@ frame_needed = 0, uses_anonymous_args = 0
  82              	.LVL2:
  83 0000 F8B5     		push	{r3, r4, r5, r6, r7, lr}
  84              		.cfi_def_cfa_offset 24
  85              		.cfi_offset 3, -24
  86              		.cfi_offset 4, -20
  87              		.cfi_offset 5, -16
  88              		.cfi_offset 6, -12
  89              		.cfi_offset 7, -8
  90              		.cfi_offset 14, -4
  91 0002 0646     		mov	r6, r0
  92 0004 0D46     		mov	r5, r1
  93 0006 1746     		mov	r7, r2
  58:I2C_Interface.c ****         // Send start condition
  59:I2C_Interface.c ****         uint8_t error = I2C_Master_MasterSendStart(device_address,I2C_Master_WRITE_XFER_MODE);
  94              		.loc 1 59 0
  95 0008 0021     		movs	r1, #0
  96              	.LVL3:
  97 000a FFF7FEFF 		bl	I2C_Master_MasterSendStart
  98              	.LVL4:
  60:I2C_Interface.c ****         if (error == I2C_Master_MSTR_NO_ERROR)
  99              		.loc 1 60 0
 100 000e 0446     		mov	r4, r0
 101 0010 68B9     		cbnz	r0, .L6
  61:I2C_Interface.c ****         {
  62:I2C_Interface.c ****             // Write address of register to be read
  63:I2C_Interface.c ****             error = I2C_Master_MasterWriteByte(register_address);
 102              		.loc 1 63 0
 103 0012 2846     		mov	r0, r5
 104              	.LVL5:
 105 0014 FFF7FEFF 		bl	I2C_Master_MasterWriteByte
 106              	.LVL6:
  64:I2C_Interface.c ****             if (error == I2C_Master_MSTR_NO_ERROR)
 107              		.loc 1 64 0
ARM GAS  C:\Users\LIUX\AppData\Local\Temp\ccDQEpUA.s 			page 4


 108 0018 0446     		mov	r4, r0
 109 001a 40B9     		cbnz	r0, .L6
  65:I2C_Interface.c ****             {
  66:I2C_Interface.c ****                 // Send restart condition
  67:I2C_Interface.c ****                 error = I2C_Master_MasterSendRestart(device_address, I2C_Master_READ_XFER_MODE);
 110              		.loc 1 67 0
 111 001c 0121     		movs	r1, #1
 112 001e 3046     		mov	r0, r6
 113              	.LVL7:
 114 0020 FFF7FEFF 		bl	I2C_Master_MasterSendRestart
 115              	.LVL8:
  68:I2C_Interface.c ****                 if (error == I2C_Master_MSTR_NO_ERROR)
 116              		.loc 1 68 0
 117 0024 0446     		mov	r4, r0
 118 0026 10B9     		cbnz	r0, .L6
  69:I2C_Interface.c ****                 {
  70:I2C_Interface.c ****                     // Read data without acknowledgement
  71:I2C_Interface.c ****                     *data = I2C_Master_MasterReadByte(I2C_Master_NAK_DATA);
 119              		.loc 1 71 0
 120 0028 FFF7FEFF 		bl	I2C_Master_MasterReadByte
 121              	.LVL9:
 122 002c 3870     		strb	r0, [r7]
 123              	.L6:
 124              	.LVL10:
  72:I2C_Interface.c ****                 }
  73:I2C_Interface.c ****             }
  74:I2C_Interface.c ****         }
  75:I2C_Interface.c ****         // Send stop condition
  76:I2C_Interface.c ****         I2C_Master_MasterSendStop();
 125              		.loc 1 76 0
 126 002e FFF7FEFF 		bl	I2C_Master_MasterSendStop
 127              	.LVL11:
  77:I2C_Interface.c ****         // Return error code
  78:I2C_Interface.c ****         return error ? ERROR : NO_ERROR;
  79:I2C_Interface.c ****     }
 128              		.loc 1 79 0
 129 0032 201C     		adds	r0, r4, #0
 130 0034 18BF     		it	ne
 131 0036 0120     		movne	r0, #1
 132 0038 F8BD     		pop	{r3, r4, r5, r6, r7, pc}
 133              		.cfi_endproc
 134              	.LFE2:
 135              		.size	I2C_Peripheral_ReadRegister, .-I2C_Peripheral_ReadRegister
 136 003a 00BF     		.section	.text.I2C_Peripheral_ReadRegisterMulti,"ax",%progbits
 137              		.align	2
 138              		.global	I2C_Peripheral_ReadRegisterMulti
 139              		.thumb
 140              		.thumb_func
 141              		.type	I2C_Peripheral_ReadRegisterMulti, %function
 142              	I2C_Peripheral_ReadRegisterMulti:
 143              	.LFB3:
  80:I2C_Interface.c ****         
  81:I2C_Interface.c ****     
  82:I2C_Interface.c ****     /**********************************************************************************************
  83:I2C_Interface.c ****     /*                                            READ MULTIPLE REGISTERs                          
  84:I2C_Interface.c ****     /**********************************************************************************************
  85:I2C_Interface.c ****     
ARM GAS  C:\Users\LIUX\AppData\Local\Temp\ccDQEpUA.s 			page 5


  86:I2C_Interface.c ****     ErrorCode I2C_Peripheral_ReadRegisterMulti(uint8_t device_address,
  87:I2C_Interface.c ****                                                 uint8_t register_address,
  88:I2C_Interface.c ****                                                 uint8_t register_count,
  89:I2C_Interface.c ****                                                 uint8_t* data) 
  90:I2C_Interface.c ****     {
 144              		.loc 1 90 0
 145              		.cfi_startproc
 146              		@ args = 0, pretend = 0, frame = 0
 147              		@ frame_needed = 0, uses_anonymous_args = 0
 148              	.LVL12:
 149 0000 2DE9F041 		push	{r4, r5, r6, r7, r8, lr}
 150              		.cfi_def_cfa_offset 24
 151              		.cfi_offset 4, -24
 152              		.cfi_offset 5, -20
 153              		.cfi_offset 6, -16
 154              		.cfi_offset 7, -12
 155              		.cfi_offset 8, -8
 156              		.cfi_offset 14, -4
 157 0004 8046     		mov	r8, r0
 158 0006 0C46     		mov	r4, r1
 159 0008 1646     		mov	r6, r2
 160 000a 1F46     		mov	r7, r3
  91:I2C_Interface.c ****         // Send start condition
  92:I2C_Interface.c ****         uint8_t error = I2C_Master_MasterSendStart(device_address,I2C_Master_WRITE_XFER_MODE);
 161              		.loc 1 92 0
 162 000c 0021     		movs	r1, #0
 163              	.LVL13:
 164 000e FFF7FEFF 		bl	I2C_Master_MasterSendStart
 165              	.LVL14:
  93:I2C_Interface.c ****         if (error == I2C_Master_MSTR_NO_ERROR)
 166              		.loc 1 93 0
 167 0012 0546     		mov	r5, r0
 168 0014 F0B9     		cbnz	r0, .L9
 169              	.LVL15:
  94:I2C_Interface.c ****         {
  95:I2C_Interface.c ****             // Write address of register to be read with the MSB equal to 1
  96:I2C_Interface.c ****             register_address |= 0x80;
  97:I2C_Interface.c ****             error = I2C_Master_MasterWriteByte(register_address);
 170              		.loc 1 97 0
 171 0016 44F08000 		orr	r0, r4, #128
 172              	.LVL16:
 173 001a FFF7FEFF 		bl	I2C_Master_MasterWriteByte
 174              	.LVL17:
  98:I2C_Interface.c ****             if (error == I2C_Master_MSTR_NO_ERROR)
 175              		.loc 1 98 0
 176 001e 0546     		mov	r5, r0
 177 0020 C0B9     		cbnz	r0, .L9
  99:I2C_Interface.c ****             {
 100:I2C_Interface.c ****                 // Send restart condition
 101:I2C_Interface.c ****                 error = I2C_Master_MasterSendRestart(device_address, I2C_Master_READ_XFER_MODE);
 178              		.loc 1 101 0
 179 0022 0121     		movs	r1, #1
 180 0024 4046     		mov	r0, r8
 181              	.LVL18:
 182 0026 FFF7FEFF 		bl	I2C_Master_MasterSendRestart
 183              	.LVL19:
 102:I2C_Interface.c ****                 if (error == I2C_Master_MSTR_NO_ERROR)
ARM GAS  C:\Users\LIUX\AppData\Local\Temp\ccDQEpUA.s 			page 6


 184              		.loc 1 102 0
 185 002a 0546     		mov	r5, r0
 186 002c 50B1     		cbz	r0, .L12
 187 002e 11E0     		b	.L9
 188              	.LVL20:
 189              	.L11:
 190              	.LBB2:
 103:I2C_Interface.c ****                 {
 104:I2C_Interface.c ****                     // Continue reading until we have register to read
 105:I2C_Interface.c ****                     uint8_t counter = register_count;
 106:I2C_Interface.c ****                     while(counter>1)
 107:I2C_Interface.c ****                     {
 108:I2C_Interface.c ****                         data[register_count-counter] =
 191              		.loc 1 108 0
 192 0030 C4EB0608 		rsb	r8, r4, r6
 109:I2C_Interface.c ****                             I2C_Master_MasterReadByte(I2C_Master_ACK_DATA);
 193              		.loc 1 109 0
 194 0034 0120     		movs	r0, #1
 195 0036 FFF7FEFF 		bl	I2C_Master_MasterReadByte
 196              	.LVL21:
 108:I2C_Interface.c ****                             I2C_Master_MasterReadByte(I2C_Master_ACK_DATA);
 197              		.loc 1 108 0
 198 003a 07F80800 		strb	r0, [r7, r8]
 110:I2C_Interface.c ****                         counter--;
 199              		.loc 1 110 0
 200 003e 013C     		subs	r4, r4, #1
 201              	.LVL22:
 202 0040 E4B2     		uxtb	r4, r4
 203              	.LVL23:
 204 0042 00E0     		b	.L10
 205              	.LVL24:
 206              	.L12:
 207              	.LBE2:
 208 0044 3446     		mov	r4, r6
 209              	.LVL25:
 210              	.L10:
 211              	.LBB3:
 106:I2C_Interface.c ****                     {
 212              		.loc 1 106 0
 213 0046 012C     		cmp	r4, #1
 214 0048 F2D8     		bhi	.L11
 111:I2C_Interface.c ****                     }
 112:I2C_Interface.c ****                     // Read last data without acknowledgement
 113:I2C_Interface.c ****                     data[register_count-1]
 215              		.loc 1 113 0
 216 004a 013E     		subs	r6, r6, #1
 114:I2C_Interface.c ****                         = I2C_Master_MasterReadByte(I2C_Master_NAK_DATA);
 217              		.loc 1 114 0
 218 004c 0020     		movs	r0, #0
 219 004e FFF7FEFF 		bl	I2C_Master_MasterReadByte
 220              	.LVL26:
 221 0052 B855     		strb	r0, [r7, r6]
 222              	.LVL27:
 223              	.L9:
 224              	.LBE3:
 115:I2C_Interface.c ****                 }
 116:I2C_Interface.c ****             }
ARM GAS  C:\Users\LIUX\AppData\Local\Temp\ccDQEpUA.s 			page 7


 117:I2C_Interface.c ****         }
 118:I2C_Interface.c ****         // Send stop condition
 119:I2C_Interface.c ****         I2C_Master_MasterSendStop();
 225              		.loc 1 119 0
 226 0054 FFF7FEFF 		bl	I2C_Master_MasterSendStop
 227              	.LVL28:
 120:I2C_Interface.c ****         // Return error code
 121:I2C_Interface.c ****         return error ? ERROR : NO_ERROR;
 122:I2C_Interface.c ****     }
 228              		.loc 1 122 0
 229 0058 281C     		adds	r0, r5, #0
 230 005a 18BF     		it	ne
 231 005c 0120     		movne	r0, #1
 232 005e BDE8F081 		pop	{r4, r5, r6, r7, r8, pc}
 233              		.cfi_endproc
 234              	.LFE3:
 235              		.size	I2C_Peripheral_ReadRegisterMulti, .-I2C_Peripheral_ReadRegisterMulti
 236 0062 00BF     		.section	.text.I2C_Peripheral_WriteRegister,"ax",%progbits
 237              		.align	2
 238              		.global	I2C_Peripheral_WriteRegister
 239              		.thumb
 240              		.thumb_func
 241              		.type	I2C_Peripheral_WriteRegister, %function
 242              	I2C_Peripheral_WriteRegister:
 243              	.LFB4:
 123:I2C_Interface.c ****     
 124:I2C_Interface.c **** 
 125:I2C_Interface.c ****     
 126:I2C_Interface.c ****     
 127:I2C_Interface.c ****     /**********************************************************************************************
 128:I2C_Interface.c ****     /*                                            WRITE SINGLE REGISTER                            
 129:I2C_Interface.c ****     /**********************************************************************************************
 130:I2C_Interface.c ****     
 131:I2C_Interface.c ****     ErrorCode I2C_Peripheral_WriteRegister(uint8_t device_address,
 132:I2C_Interface.c ****                                            uint8_t register_address,
 133:I2C_Interface.c ****                                            uint8_t data)
 134:I2C_Interface.c ****     {
 244              		.loc 1 134 0
 245              		.cfi_startproc
 246              		@ args = 0, pretend = 0, frame = 0
 247              		@ frame_needed = 0, uses_anonymous_args = 0
 248              	.LVL29:
 249 0000 70B5     		push	{r4, r5, r6, lr}
 250              		.cfi_def_cfa_offset 16
 251              		.cfi_offset 4, -16
 252              		.cfi_offset 5, -12
 253              		.cfi_offset 6, -8
 254              		.cfi_offset 14, -4
 255 0002 0D46     		mov	r5, r1
 256 0004 1646     		mov	r6, r2
 135:I2C_Interface.c ****         // Send start condition
 136:I2C_Interface.c ****         uint8_t error = I2C_Master_MasterSendStart(device_address, I2C_Master_WRITE_XFER_MODE);
 257              		.loc 1 136 0
 258 0006 0021     		movs	r1, #0
 259              	.LVL30:
 260 0008 FFF7FEFF 		bl	I2C_Master_MasterSendStart
 261              	.LVL31:
ARM GAS  C:\Users\LIUX\AppData\Local\Temp\ccDQEpUA.s 			page 8


 137:I2C_Interface.c ****         if (error == I2C_Master_MSTR_NO_ERROR){
 262              		.loc 1 137 0
 263 000c 0446     		mov	r4, r0
 264 000e 40B9     		cbnz	r0, .L15
 138:I2C_Interface.c ****             
 139:I2C_Interface.c ****             // Write register address
 140:I2C_Interface.c ****             error = I2C_Master_MasterWriteByte(register_address);
 265              		.loc 1 140 0
 266 0010 2846     		mov	r0, r5
 267              	.LVL32:
 268 0012 FFF7FEFF 		bl	I2C_Master_MasterWriteByte
 269              	.LVL33:
 141:I2C_Interface.c ****             if (error == I2C_Master_MSTR_NO_ERROR)
 270              		.loc 1 141 0
 271 0016 0446     		mov	r4, r0
 272 0018 18B9     		cbnz	r0, .L15
 142:I2C_Interface.c ****             {
 143:I2C_Interface.c ****                 // Write byte of interest
 144:I2C_Interface.c ****                 error = I2C_Master_MasterWriteByte(data);
 273              		.loc 1 144 0
 274 001a 3046     		mov	r0, r6
 275              	.LVL34:
 276 001c FFF7FEFF 		bl	I2C_Master_MasterWriteByte
 277              	.LVL35:
 278 0020 0446     		mov	r4, r0
 279              	.LVL36:
 280              	.L15:
 145:I2C_Interface.c ****             }
 146:I2C_Interface.c ****         }
 147:I2C_Interface.c ****         // Send stop condition
 148:I2C_Interface.c ****         I2C_Master_MasterSendStop();
 281              		.loc 1 148 0
 282 0022 FFF7FEFF 		bl	I2C_Master_MasterSendStop
 283              	.LVL37:
 149:I2C_Interface.c ****         // Return error code
 150:I2C_Interface.c ****         return error ? ERROR : NO_ERROR;
 151:I2C_Interface.c ****     }
 284              		.loc 1 151 0
 285 0026 201C     		adds	r0, r4, #0
 286 0028 18BF     		it	ne
 287 002a 0120     		movne	r0, #1
 288 002c 70BD     		pop	{r4, r5, r6, pc}
 289              		.cfi_endproc
 290              	.LFE4:
 291              		.size	I2C_Peripheral_WriteRegister, .-I2C_Peripheral_WriteRegister
 292 002e 00BF     		.section	.text.I2C_Peripheral_WriteRegisterMulti,"ax",%progbits
 293              		.align	2
 294              		.global	I2C_Peripheral_WriteRegisterMulti
 295              		.thumb
 296              		.thumb_func
 297              		.type	I2C_Peripheral_WriteRegisterMulti, %function
 298              	I2C_Peripheral_WriteRegisterMulti:
 299              	.LFB5:
 152:I2C_Interface.c ****     
 153:I2C_Interface.c ****     
 154:I2C_Interface.c ****     /**********************************************************************************************
 155:I2C_Interface.c ****     /*                                            WRITE MULTIPLE REGISTERs                         
ARM GAS  C:\Users\LIUX\AppData\Local\Temp\ccDQEpUA.s 			page 9


 156:I2C_Interface.c ****     /**********************************************************************************************
 157:I2C_Interface.c ****     
 158:I2C_Interface.c ****     ErrorCode I2C_Peripheral_WriteRegisterMulti(uint8_t device_address,
 159:I2C_Interface.c ****                                                 uint8_t register_address,
 160:I2C_Interface.c ****                                                 uint8_t register_count,
 161:I2C_Interface.c ****                                                 uint8_t* data)
 162:I2C_Interface.c ****     {
 300              		.loc 1 162 0
 301              		.cfi_startproc
 302              		@ args = 0, pretend = 0, frame = 0
 303              		@ frame_needed = 0, uses_anonymous_args = 0
 304              	.LVL38:
 305 0000 F8B5     		push	{r3, r4, r5, r6, r7, lr}
 306              		.cfi_def_cfa_offset 24
 307              		.cfi_offset 3, -24
 308              		.cfi_offset 4, -20
 309              		.cfi_offset 5, -16
 310              		.cfi_offset 6, -12
 311              		.cfi_offset 7, -8
 312              		.cfi_offset 14, -4
 313 0002 0F46     		mov	r7, r1
 314 0004 1546     		mov	r5, r2
 315 0006 1E46     		mov	r6, r3
 163:I2C_Interface.c ****         // Send start condition
 164:I2C_Interface.c ****         uint8_t error = I2C_Master_MasterSendStart(device_address, I2C_Master_WRITE_XFER_MODE);
 316              		.loc 1 164 0
 317 0008 0021     		movs	r1, #0
 318              	.LVL39:
 319 000a FFF7FEFF 		bl	I2C_Master_MasterSendStart
 320              	.LVL40:
 165:I2C_Interface.c ****         if (error == I2C_Master_MSTR_NO_ERROR)
 321              		.loc 1 165 0
 322 000e 0446     		mov	r4, r0
 323 0010 88B9     		cbnz	r0, .L18
 166:I2C_Interface.c ****         {
 167:I2C_Interface.c ****             // Write register address
 168:I2C_Interface.c ****             error = I2C_Master_MasterWriteByte(register_address);
 324              		.loc 1 168 0
 325 0012 3846     		mov	r0, r7
 326              	.LVL41:
 327 0014 FFF7FEFF 		bl	I2C_Master_MasterWriteByte
 328              	.LVL42:
 169:I2C_Interface.c ****             if (error == I2C_Master_MSTR_NO_ERROR)
 329              		.loc 1 169 0
 330 0018 0446     		mov	r4, r0
 331 001a 60B9     		cbnz	r0, .L18
 332 001c 2C46     		mov	r4, r5
 333              	.L21:
 334              	.LVL43:
 335              	.LBB4:
 170:I2C_Interface.c ****             {
 171:I2C_Interface.c ****                 // Continue writing until we have data to write
 172:I2C_Interface.c ****                 uint8_t counter = register_count;
 173:I2C_Interface.c ****                 while(counter >= 0)
 174:I2C_Interface.c ****                 {
 175:I2C_Interface.c ****                      error =
 176:I2C_Interface.c ****                         I2C_Master_MasterWriteByte(data[register_count-counter]);
ARM GAS  C:\Users\LIUX\AppData\Local\Temp\ccDQEpUA.s 			page 10


 336              		.loc 1 176 0
 337 001e 2B1B     		subs	r3, r5, r4
 175:I2C_Interface.c ****                         I2C_Master_MasterWriteByte(data[register_count-counter]);
 338              		.loc 1 175 0
 339 0020 F05C     		ldrb	r0, [r6, r3]	@ zero_extendqisi2
 340              	.LVL44:
 341 0022 FFF7FEFF 		bl	I2C_Master_MasterWriteByte
 342              	.LVL45:
 177:I2C_Interface.c ****                     if (error != I2C_Master_MSTR_NO_ERROR)
 343              		.loc 1 177 0
 344 0026 18B1     		cbz	r0, .L19
 178:I2C_Interface.c ****                     {
 179:I2C_Interface.c ****                         // Send stop condition
 180:I2C_Interface.c ****                         I2C_Master_MasterSendStop();
 345              		.loc 1 180 0
 346 0028 FFF7FEFF 		bl	I2C_Master_MasterSendStop
 347              	.LVL46:
 181:I2C_Interface.c ****                         // Return error code
 182:I2C_Interface.c ****                         return ERROR;
 348              		.loc 1 182 0
 349 002c 0120     		movs	r0, #1
 350 002e F8BD     		pop	{r3, r4, r5, r6, r7, pc}
 351              	.LVL47:
 352              	.L19:
 183:I2C_Interface.c ****                     }
 184:I2C_Interface.c ****                     counter--;
 353              		.loc 1 184 0
 354 0030 013C     		subs	r4, r4, #1
 355              	.LVL48:
 356 0032 E4B2     		uxtb	r4, r4
 357              	.LVL49:
 185:I2C_Interface.c ****                 }
 358              		.loc 1 185 0
 359 0034 F3E7     		b	.L21
 360              	.LVL50:
 361              	.L18:
 362              	.LBE4:
 186:I2C_Interface.c ****             }
 187:I2C_Interface.c ****         }
 188:I2C_Interface.c ****         // Send stop condition in case something didn't work out correctly
 189:I2C_Interface.c ****         I2C_Master_MasterSendStop();
 363              		.loc 1 189 0
 364 0036 FFF7FEFF 		bl	I2C_Master_MasterSendStop
 365              	.LVL51:
 190:I2C_Interface.c ****         // Return error code
 191:I2C_Interface.c ****         return error ? ERROR : NO_ERROR;
 366              		.loc 1 191 0
 367 003a 201C     		adds	r0, r4, #0
 368 003c 18BF     		it	ne
 369 003e 0120     		movne	r0, #1
 192:I2C_Interface.c ****     }
 370              		.loc 1 192 0
 371 0040 F8BD     		pop	{r3, r4, r5, r6, r7, pc}
 372              		.cfi_endproc
 373              	.LFE5:
 374              		.size	I2C_Peripheral_WriteRegisterMulti, .-I2C_Peripheral_WriteRegisterMulti
 375 0042 00BF     		.section	.text.I2C_Peripheral_IsDeviceConnected,"ax",%progbits
ARM GAS  C:\Users\LIUX\AppData\Local\Temp\ccDQEpUA.s 			page 11


 376              		.align	2
 377              		.global	I2C_Peripheral_IsDeviceConnected
 378              		.thumb
 379              		.thumb_func
 380              		.type	I2C_Peripheral_IsDeviceConnected, %function
 381              	I2C_Peripheral_IsDeviceConnected:
 382              	.LFB6:
 193:I2C_Interface.c ****     
 194:I2C_Interface.c ****     
 195:I2C_Interface.c ****     
 196:I2C_Interface.c ****     /**********************************************************************************************
 197:I2C_Interface.c ****     /*                                          IS THE DEVICE CONNECTED?                           
 198:I2C_Interface.c ****     /**********************************************************************************************
 199:I2C_Interface.c ****     
 200:I2C_Interface.c ****     uint8_t I2C_Peripheral_IsDeviceConnected(uint8_t device_address)
 201:I2C_Interface.c ****     {
 383              		.loc 1 201 0
 384              		.cfi_startproc
 385              		@ args = 0, pretend = 0, frame = 0
 386              		@ frame_needed = 0, uses_anonymous_args = 0
 387              	.LVL52:
 388 0000 10B5     		push	{r4, lr}
 389              		.cfi_def_cfa_offset 8
 390              		.cfi_offset 4, -8
 391              		.cfi_offset 14, -4
 202:I2C_Interface.c ****         // Send a start condition followed by a stop condition
 203:I2C_Interface.c ****         uint8_t error = I2C_Master_MasterSendStart(device_address, I2C_Master_WRITE_XFER_MODE);
 392              		.loc 1 203 0
 393 0002 0021     		movs	r1, #0
 394 0004 FFF7FEFF 		bl	I2C_Master_MasterSendStart
 395              	.LVL53:
 396 0008 0446     		mov	r4, r0
 397              	.LVL54:
 204:I2C_Interface.c ****         I2C_Master_MasterSendStop();
 398              		.loc 1 204 0
 399 000a FFF7FEFF 		bl	I2C_Master_MasterSendStop
 400              	.LVL55:
 205:I2C_Interface.c ****         // If no error generated during stop, device is connected
 206:I2C_Interface.c ****         if (error == I2C_Master_MSTR_NO_ERROR)
 401              		.loc 1 206 0
 402 000e 0CB9     		cbnz	r4, .L25
 207:I2C_Interface.c ****         {
 208:I2C_Interface.c ****             return DEVICE_CONNECTED;
 403              		.loc 1 208 0
 404 0010 0120     		movs	r0, #1
 405 0012 10BD     		pop	{r4, pc}
 406              	.LVL56:
 407              	.L25:
 209:I2C_Interface.c ****         }
 210:I2C_Interface.c ****         return DEVICE_UNCONNECTED;
 408              		.loc 1 210 0
 409 0014 0020     		movs	r0, #0
 211:I2C_Interface.c ****     }
 410              		.loc 1 211 0
 411 0016 10BD     		pop	{r4, pc}
 412              		.cfi_endproc
 413              	.LFE6:
ARM GAS  C:\Users\LIUX\AppData\Local\Temp\ccDQEpUA.s 			page 12


 414              		.size	I2C_Peripheral_IsDeviceConnected, .-I2C_Peripheral_IsDeviceConnected
 415              		.text
 416              	.Letext0:
 417              		.file 2 "c:\\program files\\cypress\\psoc creator\\4.3\\psoc creator\\import\\gnu\\arm\\5.4.1\\arm
 418              		.file 3 "c:\\program files\\cypress\\psoc creator\\4.3\\psoc creator\\import\\gnu\\arm\\5.4.1\\arm
 419              		.file 4 "ErrorCodes.h"
 420              		.file 5 "Generated_Source\\PSoC5/I2C_Master.h"