ARM GAS  C:\Users\LIUX\AppData\Local\Temp\ccTTRd9c.s 			page 1


   1              		.syntax unified
   2              		.cpu cortex-m3
   3              		.fpu softvfp
   4              		.eabi_attribute 20, 1
   5              		.eabi_attribute 21, 1
   6              		.eabi_attribute 23, 3
   7              		.eabi_attribute 24, 1
   8              		.eabi_attribute 25, 1
   9              		.eabi_attribute 26, 1
  10              		.eabi_attribute 30, 1
  11              		.eabi_attribute 34, 1
  12              		.eabi_attribute 18, 4
  13              		.thumb
  14              		.syntax unified
  15              		.file	"main.c"
  16              		.text
  17              	.Ltext0:
  18              		.cfi_sections	.debug_frame
  19              		.global	__aeabi_i2f
  20              		.global	__aeabi_fmul
  21              		.global	__aeabi_f2iz
  22              		.section	.text.main,"ax",%progbits
  23              		.align	2
  24              		.global	main
  25              		.thumb
  26              		.thumb_func
  27              		.type	main, %function
  28              	main:
  29              	.LFB64:
  30              		.file 1 "main.c"
   1:main.c        **** /**
   2:main.c        **** * \brief Main source file for the I2C-Master project.
   3:main.c        **** *
   4:main.c        **** * In this project we set up a I2C master device with
   5:main.c        **** * to understand the I2C protocol and communicate with a
   6:main.c        **** * a I2C Slave device (LIS3DH Accelerometer).
   7:main.c        **** *
   8:main.c        **** * \author Gabriele Belotti
   9:main.c        **** * \date , 2020
  10:main.c        **** */
  11:main.c        **** 
  12:main.c        ****     /**********************************************************************************************
  13:main.c        ****     /*                                            INCLUDE HEADER FILES                             
  14:main.c        ****     /**********************************************************************************************
  15:main.c        **** 
  16:main.c        **** #include "I2C_Interface.h"
  17:main.c        **** #include "project.h"
  18:main.c        **** #include "stdio.h"
  19:main.c        **** 
  20:main.c        ****     /**********************************************************************************************
  21:main.c        ****     /*                                               DEFINE ADDRESSES                              
  22:main.c        ****     /**********************************************************************************************
  23:main.c        **** 
  24:main.c        **** // 7-bit I2C address of the slave device.
  25:main.c        **** #define LIS3DH_DEVICE_ADDRESS 0x18
  26:main.c        **** 
  27:main.c        **** // Address of the WHO AM I register
ARM GAS  C:\Users\LIUX\AppData\Local\Temp\ccTTRd9c.s 			page 2


  28:main.c        **** #define LIS3DH_WHO_AM_I_REG_ADDR 0x0F
  29:main.c        **** 
  30:main.c        **** /* Request 2.3.1: Correctly set the control register to 
  31:main.c        **** *                 output a 3 Axis Signal in 
  32:main.c        **** *                 High Resolution Mode at 100 Hz in the ±4.0 g FSR
  33:main.c        **** *
  34:main.c        **** * From datasheet:
  35:main.c        **** *
  36:main.c        **** *   |**************** CTRL_REG1 register ****************|
  37:main.c        **** *   | ODR3 | ODR2 | ODR1 | ODR0 | LPen | Zen | Yen | Xen |
  38:main.c        **** *   |  0   |  1   |  0   |  1   |  0   |  1  |  1  |  1  | 0x57
  39:main.c        **** *
  40:main.c        **** *   ODR[3:0]:   Data rate selection. Default value: 0000
  41:main.c        **** *                                                   0101 HR / Normal / Low-power mode (100 Hz)
  42:main.c        **** *   Zen:        Z-axis enable. Default value: 1
  43:main.c        **** *   Yen:        Y-axis enable. Default value: 1
  44:main.c        **** *   Xen:        X-axis enable. Default value: 1
  45:main.c        **** *                             (0: X-axis disabled; 1: X-axis enabled)
  46:main.c        **** */
  47:main.c        **** // Address of the Control register 1 - CTRL_REG1(20h)
  48:main.c        **** #define LIS3DH_CTRL_REG1 0x20
  49:main.c        **** 
  50:main.c        **** // Hex value to set normal mode to the accelerator
  51:main.c        **** #define LIS3DH_NORMAL_MODE_CTRL_REG1 0x57
  52:main.c        **** 
  53:main.c        **** /*
  54:main.c        **** * From datasheet:
  55:main.c        **** *
  56:main.c        **** *    FS[1:0]: Full-scale selection. default value: 00
  57:main.c        **** *             (00: ±2 g; 01: ±4 g; 10: ±8 g; 11: ±16 g)
  58:main.c        **** *
  59:main.c        **** *   |************ CTRL_REG4 register **************|
  60:main.c        **** *   | BDU | BLE | FS1 | FS0 | HR | ST1 | ST0 | SIM |
  61:main.c        **** *   |  1  |  0  |  0  |  1  | 1  |  0  |  0  |  0  | 0x98
  62:main.c        **** */
  63:main.c        **** 
  64:main.c        **** // Address of the Control register 4 - CTRL_REG4(23h)
  65:main.c        **** #define LIS3DH_CTRL_REG4 0x23
  66:main.c        **** #define LIS3DH_CTRL_REG4_BDU_ACTIVE 0x98
  67:main.c        **** 
  68:main.c        **** /* Request 2.3.2: Read Output registers at a correct frequency  
  69:main.c        **** *                 (verify new Data is available using StatusReg
  70:main.c        **** *                 information). Carefully think about the possible
  71:main.c        **** *                 options to read data at a constant rate.
  72:main.c        **** *
  73:main.c        **** *   |*************** STATUS_REG(27h) ***************|
  74:main.c        **** *   |ZYXOR| ZOR | YOR | XOR |ZYXDA| ZDA | YDA | XDA |
  75:main.c        **** *   |  0  |  0  |  0  |  0  |  0  |  0  |  0  |  0  | 0x0
  76:main.c        **** */
  77:main.c        **** 
  78:main.c        **** // Address of the Status register
  79:main.c        **** #define LIS3DH_STATUS_REG 0x27
  80:main.c        **** 
  81:main.c        **** // ZYXDA Mask: X, Y and Z-axis new data available. Default value: 0
  82:main.c        **** #define LIS3DH_STATUS_REG_ZYXDA 0x8
  83:main.c        **** 
  84:main.c        **** /* OUT_X_L (28h), OUT_X_H (29h)
ARM GAS  C:\Users\LIUX\AppData\Local\Temp\ccTTRd9c.s 			page 3


  85:main.c        **** *  OUT_Y_L (2Ah), OUT_Y_H (2Bh)
  86:main.c        **** *  OUT_Z_L (2Ch), OUT_Z_H (2Dh) */
  87:main.c        **** #define LIS3DH_OUT_X_L 0x28
  88:main.c        **** 
  89:main.c        **** // Address of FIFO control register 
  90:main.c        **** // Address of the Control register 5 - CTRL_REG5(20h)
  91:main.c        **** #define LIS3DH_CTRL_REG5 0x24
  92:main.c        **** #define LIS3DH_CTRL_REG5_FIFO_DISABLE 0x0 // FIFO 0x40
  93:main.c        **** #define LIS3DH_FIFO_CTRL_REG 0x2E
  94:main.c        **** #define LIS3DH_FIFO_DISABLE 0x0 // FIFO 0x40 / bypass 0x0 / Stream 0x80 / stream to fifo 0xC0
  95:main.c        **** 
  96:main.c        **** // Address of the Temperature Sensor Configuration register
  97:main.c        **** #define LIS3DH_TEMP_CFG_REG 0x1F
  98:main.c        **** #define LIS3DH_TEMP_CFG_REG_ACTIVE 0xC0
  99:main.c        **** 
 100:main.c        **** // Address of the ADC output LSB register
 101:main.c        **** #define LIS3DH_OUT_ADC_3L 0x0C
 102:main.c        **** 
 103:main.c        **** // Address of the ADC output MSB register
 104:main.c        **** #define LIS3DH_OUT_ADC_3H 0x0D
 105:main.c        **** 
 106:main.c        ****     /**********************************************************************************************
 107:main.c        ****     /*                                                    MAIN                                     
 108:main.c        ****     /**********************************************************************************************
 109:main.c        **** 
 110:main.c        **** int main(void)
 111:main.c        **** {
  31              		.loc 1 111 0
  32              		.cfi_startproc
  33              		@ args = 0, pretend = 0, frame = 80
  34              		@ frame_needed = 0, uses_anonymous_args = 0
  35 0000 30B5     		push	{r4, r5, lr}
  36              		.cfi_def_cfa_offset 12
  37              		.cfi_offset 4, -12
  38              		.cfi_offset 5, -8
  39              		.cfi_offset 14, -4
  40 0002 95B0     		sub	sp, sp, #84
  41              		.cfi_def_cfa_offset 96
 112:main.c        ****     CyGlobalIntEnable; /* Enable global interrupts. */
  42              		.loc 1 112 0
  43              		.syntax unified
  44              	@ 112 "main.c" 1
  45 0004 62B6     		CPSIE   i
  46              	@ 0 "" 2
 113:main.c        **** 
 114:main.c        ****     /* Place your initialization/startup code here (e.g. MyInst_Start()) */
 115:main.c        ****     I2C_Peripheral_Start();
  47              		.loc 1 115 0
  48              		.thumb
  49              		.syntax unified
  50 0006 FFF7FEFF 		bl	I2C_Peripheral_Start
  51              	.LVL0:
 116:main.c        ****     UART_Debug_Start();
  52              		.loc 1 116 0
  53 000a FFF7FEFF 		bl	UART_Debug_Start
  54              	.LVL1:
 117:main.c        **** 
ARM GAS  C:\Users\LIUX\AppData\Local\Temp\ccTTRd9c.s 			page 4


 118:main.c        ****     CyDelay(5); //"The boot procedure is complete about 5 milliseconds after device power-up."
  55              		.loc 1 118 0
  56 000e 0520     		movs	r0, #5
  57 0010 FFF7FEFF 		bl	CyDelay
  58              	.LVL2:
  59              	.LBB2:
 119:main.c        **** 
 120:main.c        ****     // String to print out messages on the UART
 121:main.c        ****     char message[50];
 122:main.c        **** 
 123:main.c        ****     // Check which devices are present on the I2C bus
 124:main.c        ****     for (int i = 0 ; i < 128; i++)
  60              		.loc 1 124 0
  61 0014 0024     		movs	r4, #0
  62 0016 0CE0     		b	.L2
  63              	.LVL3:
  64              	.L4:
 125:main.c        ****     {
 126:main.c        ****         if (I2C_Peripheral_IsDeviceConnected(i))
  65              		.loc 1 126 0
  66 0018 E0B2     		uxtb	r0, r4
  67 001a FFF7FEFF 		bl	I2C_Peripheral_IsDeviceConnected
  68              	.LVL4:
  69 001e 38B1     		cbz	r0, .L3
 127:main.c        ****         {
 128:main.c        ****             // print out the address is hex format
 129:main.c        ****             sprintf(message, "Device 0x%02X is connected\r\n", i);
  70              		.loc 1 129 0
  71 0020 2246     		mov	r2, r4
  72 0022 AB49     		ldr	r1, .L29
  73 0024 07A8     		add	r0, sp, #28
  74 0026 FFF7FEFF 		bl	sprintf
  75              	.LVL5:
 130:main.c        ****             UART_Debug_PutString(message);
  76              		.loc 1 130 0
  77 002a 07A8     		add	r0, sp, #28
  78 002c FFF7FEFF 		bl	UART_Debug_PutString
  79              	.LVL6:
  80              	.L3:
 124:main.c        ****     {
  81              		.loc 1 124 0 discriminator 2
  82 0030 0134     		adds	r4, r4, #1
  83              	.LVL7:
  84              	.L2:
 124:main.c        ****     {
  85              		.loc 1 124 0 is_stmt 0 discriminator 1
  86 0032 7F2C     		cmp	r4, #127
  87 0034 F0DD     		ble	.L4
  88              	.LBE2:
 131:main.c        ****         }
 132:main.c        **** 
 133:main.c        ****     }
 134:main.c        **** 
 135:main.c        ****     /**********************************************************************************************
 136:main.c        ****     /*                                                  I2C Reading                                
 137:main.c        ****     /**********************************************************************************************
 138:main.c        **** 
ARM GAS  C:\Users\LIUX\AppData\Local\Temp\ccTTRd9c.s 			page 5


 139:main.c        ****     /* Read WHO AM I REGISTER register */
 140:main.c        ****     uint8_t who_am_i_reg;
 141:main.c        ****     ErrorCode error = I2C_Peripheral_ReadRegister(LIS3DH_DEVICE_ADDRESS,
  89              		.loc 1 141 0 is_stmt 1
  90 0036 0DF11B02 		add	r2, sp, #27
  91 003a 0F21     		movs	r1, #15
  92 003c 1820     		movs	r0, #24
  93 003e FFF7FEFF 		bl	I2C_Peripheral_ReadRegister
  94              	.LVL8:
 142:main.c        ****                                                   LIS3DH_WHO_AM_I_REG_ADDR,
 143:main.c        ****                                                   &who_am_i_reg);
 144:main.c        ****     if (error == NO_ERROR)
  95              		.loc 1 144 0
  96 0042 48B9     		cbnz	r0, .L5
 145:main.c        ****     {
 146:main.c        ****         sprintf(message, "WHO AM I REG: 0x%02X [Expected: 0x33]\r\n", who_am_i_reg);
  97              		.loc 1 146 0
  98 0044 9DF81B20 		ldrb	r2, [sp, #27]	@ zero_extendqisi2
  99 0048 A249     		ldr	r1, .L29+4
 100 004a 07A8     		add	r0, sp, #28
 101              	.LVL9:
 102 004c FFF7FEFF 		bl	sprintf
 103              	.LVL10:
 147:main.c        ****         UART_Debug_PutString(message);
 104              		.loc 1 147 0
 105 0050 07A8     		add	r0, sp, #28
 106 0052 FFF7FEFF 		bl	UART_Debug_PutString
 107              	.LVL11:
 108 0056 02E0     		b	.L6
 109              	.LVL12:
 110              	.L5:
 148:main.c        ****     }
 149:main.c        ****     else
 150:main.c        ****     {
 151:main.c        ****         UART_Debug_PutString("Error occurred during I2C comm\r\n");
 111              		.loc 1 151 0
 112 0058 9F48     		ldr	r0, .L29+8
 113              	.LVL13:
 114 005a FFF7FEFF 		bl	UART_Debug_PutString
 115              	.LVL14:
 116              	.L6:
 152:main.c        ****     }
 153:main.c        **** 
 154:main.c        ****     /**********************************************************************************************
 155:main.c        ****     /*                                         I2C Reading Status Register                         
 156:main.c        ****     /**********************************************************************************************
 157:main.c        **** 
 158:main.c        ****     uint8_t status_register;
 159:main.c        ****     error = I2C_Peripheral_ReadRegister(LIS3DH_DEVICE_ADDRESS,
 117              		.loc 1 159 0
 118 005e 0DF11A02 		add	r2, sp, #26
 119 0062 2721     		movs	r1, #39
 120 0064 1820     		movs	r0, #24
 121 0066 FFF7FEFF 		bl	I2C_Peripheral_ReadRegister
 122              	.LVL15:
 160:main.c        ****                                         LIS3DH_STATUS_REG,
 161:main.c        ****                                         &status_register);
ARM GAS  C:\Users\LIUX\AppData\Local\Temp\ccTTRd9c.s 			page 6


 162:main.c        **** 
 163:main.c        ****     if (error == NO_ERROR)
 123              		.loc 1 163 0
 124 006a 48B9     		cbnz	r0, .L7
 164:main.c        ****     {
 165:main.c        ****         sprintf(message, "STATUS REGISTER: 0x%02X\r\n", status_register);
 125              		.loc 1 165 0
 126 006c 9DF81A20 		ldrb	r2, [sp, #26]	@ zero_extendqisi2
 127 0070 9A49     		ldr	r1, .L29+12
 128 0072 07A8     		add	r0, sp, #28
 129              	.LVL16:
 130 0074 FFF7FEFF 		bl	sprintf
 131              	.LVL17:
 166:main.c        ****         UART_Debug_PutString(message);
 132              		.loc 1 166 0
 133 0078 07A8     		add	r0, sp, #28
 134 007a FFF7FEFF 		bl	UART_Debug_PutString
 135              	.LVL18:
 136 007e 02E0     		b	.L8
 137              	.LVL19:
 138              	.L7:
 167:main.c        ****     }
 168:main.c        ****     else
 169:main.c        ****     {
 170:main.c        ****         UART_Debug_PutString("Error occurred during I2C comm to read status register\r\n");
 139              		.loc 1 170 0
 140 0080 9748     		ldr	r0, .L29+16
 141              	.LVL20:
 142 0082 FFF7FEFF 		bl	UART_Debug_PutString
 143              	.LVL21:
 144              	.L8:
 171:main.c        ****     }
 172:main.c        **** 
 173:main.c        ****     /**********************************************************************************************
 174:main.c        ****     /*                                            Read Control Register 1                          
 175:main.c        ****     /**********************************************************************************************
 176:main.c        **** 
 177:main.c        ****     uint8_t ctrl_reg1;
 178:main.c        ****     error = I2C_Peripheral_ReadRegister(LIS3DH_DEVICE_ADDRESS,
 145              		.loc 1 178 0
 146 0086 0DF11902 		add	r2, sp, #25
 147 008a 2021     		movs	r1, #32
 148 008c 1820     		movs	r0, #24
 149 008e FFF7FEFF 		bl	I2C_Peripheral_ReadRegister
 150              	.LVL22:
 179:main.c        ****                                         LIS3DH_CTRL_REG1,
 180:main.c        ****                                         &ctrl_reg1);
 181:main.c        **** 
 182:main.c        ****     if (error == NO_ERROR)
 151              		.loc 1 182 0
 152 0092 48B9     		cbnz	r0, .L9
 183:main.c        ****     {
 184:main.c        ****         sprintf(message, "CONTROL REGISTER 1: 0x%02X\r\n", ctrl_reg1);
 153              		.loc 1 184 0
 154 0094 9DF81920 		ldrb	r2, [sp, #25]	@ zero_extendqisi2
 155 0098 9249     		ldr	r1, .L29+20
 156 009a 07A8     		add	r0, sp, #28
ARM GAS  C:\Users\LIUX\AppData\Local\Temp\ccTTRd9c.s 			page 7


 157              	.LVL23:
 158 009c FFF7FEFF 		bl	sprintf
 159              	.LVL24:
 185:main.c        ****         UART_Debug_PutString(message);
 160              		.loc 1 185 0
 161 00a0 07A8     		add	r0, sp, #28
 162 00a2 FFF7FEFF 		bl	UART_Debug_PutString
 163              	.LVL25:
 164 00a6 02E0     		b	.L10
 165              	.LVL26:
 166              	.L9:
 186:main.c        ****     }
 187:main.c        ****     else
 188:main.c        ****     {
 189:main.c        ****         UART_Debug_PutString("Error occurred during I2C comm to read control register 1\r\n");
 167              		.loc 1 189 0
 168 00a8 8F48     		ldr	r0, .L29+24
 169              	.LVL27:
 170 00aa FFF7FEFF 		bl	UART_Debug_PutString
 171              	.LVL28:
 172              	.L10:
 190:main.c        ****     }
 191:main.c        **** 
 192:main.c        ****     /**********************************************************************************************
 193:main.c        ****     /*                                                 I2C Writing                                 
 194:main.c        ****     /**********************************************************************************************
 195:main.c        **** 
 196:main.c        ****     UART_Debug_PutString("\r\nWriting new values..\r\n");
 173              		.loc 1 196 0
 174 00ae 8F48     		ldr	r0, .L29+28
 175 00b0 FFF7FEFF 		bl	UART_Debug_PutString
 176              	.LVL29:
 197:main.c        **** 
 198:main.c        ****     if (ctrl_reg1 != LIS3DH_NORMAL_MODE_CTRL_REG1)
 177              		.loc 1 198 0
 178 00b4 9DF81930 		ldrb	r3, [sp, #25]	@ zero_extendqisi2
 179 00b8 572B     		cmp	r3, #87
 180 00ba 14D0     		beq	.L11
 199:main.c        ****     {
 200:main.c        ****         ctrl_reg1 = LIS3DH_NORMAL_MODE_CTRL_REG1;
 181              		.loc 1 200 0
 182 00bc 5722     		movs	r2, #87
 183 00be 8DF81920 		strb	r2, [sp, #25]
 201:main.c        **** 
 202:main.c        ****         error = I2C_Peripheral_WriteRegister(LIS3DH_DEVICE_ADDRESS,
 184              		.loc 1 202 0
 185 00c2 2021     		movs	r1, #32
 186 00c4 1820     		movs	r0, #24
 187 00c6 FFF7FEFF 		bl	I2C_Peripheral_WriteRegister
 188              	.LVL30:
 203:main.c        ****                                              LIS3DH_CTRL_REG1,
 204:main.c        ****                                              ctrl_reg1);
 205:main.c        **** 
 206:main.c        ****         if (error == NO_ERROR)
 189              		.loc 1 206 0
 190 00ca 48B9     		cbnz	r0, .L12
 207:main.c        ****         {
ARM GAS  C:\Users\LIUX\AppData\Local\Temp\ccTTRd9c.s 			page 8


 208:main.c        ****             sprintf(message, "CONTROL REGISTER 1 successfully written as: 0x%02X\r\n", ctrl_reg1);
 191              		.loc 1 208 0
 192 00cc 9DF81920 		ldrb	r2, [sp, #25]	@ zero_extendqisi2
 193 00d0 8749     		ldr	r1, .L29+32
 194 00d2 07A8     		add	r0, sp, #28
 195              	.LVL31:
 196 00d4 FFF7FEFF 		bl	sprintf
 197              	.LVL32:
 209:main.c        ****             UART_Debug_PutString(message);
 198              		.loc 1 209 0
 199 00d8 07A8     		add	r0, sp, #28
 200 00da FFF7FEFF 		bl	UART_Debug_PutString
 201              	.LVL33:
 202 00de 02E0     		b	.L11
 203              	.LVL34:
 204              	.L12:
 210:main.c        ****         }
 211:main.c        ****         else
 212:main.c        ****         {
 213:main.c        ****             UART_Debug_PutString("Error occurred during I2C comm to set control register 1\r\n");
 205              		.loc 1 213 0
 206 00e0 8448     		ldr	r0, .L29+36
 207              	.LVL35:
 208 00e2 FFF7FEFF 		bl	UART_Debug_PutString
 209              	.LVL36:
 210              	.L11:
 214:main.c        ****         }
 215:main.c        ****     }
 216:main.c        **** 
 217:main.c        ****     /**********************************************************************************************
 218:main.c        ****     /*                                               FIFO mode disabled                            
 219:main.c        ****     /**********************************************************************************************
 220:main.c        **** 
 221:main.c        ****     /* Previously it seemed as if the data were stuck, maybe because FIFO mode has been enabled in 
 222:main.c        ****     *  this mode could be usefull for achiving the following request:
 223:main.c        ****     *  "Carefully think about the possible options to read data at a constant rate."
 224:main.c        ****     */
 225:main.c        **** 
 226:main.c        ****     UART_Debug_PutString("\r\nWriting new values..\r\n");
 211              		.loc 1 226 0
 212 00e6 8148     		ldr	r0, .L29+28
 213 00e8 FFF7FEFF 		bl	UART_Debug_PutString
 214              	.LVL37:
 227:main.c        **** 
 228:main.c        ****     error = I2C_Peripheral_WriteRegister(LIS3DH_DEVICE_ADDRESS,
 215              		.loc 1 228 0
 216 00ec 0022     		movs	r2, #0
 217 00ee 2421     		movs	r1, #36
 218 00f0 1820     		movs	r0, #24
 219 00f2 FFF7FEFF 		bl	I2C_Peripheral_WriteRegister
 220              	.LVL38:
 229:main.c        ****                                          LIS3DH_CTRL_REG5,
 230:main.c        ****                                          LIS3DH_CTRL_REG5_FIFO_DISABLE);
 231:main.c        **** 
 232:main.c        ****     error = I2C_Peripheral_WriteRegister(LIS3DH_DEVICE_ADDRESS,
 221              		.loc 1 232 0
 222 00f6 0022     		movs	r2, #0
ARM GAS  C:\Users\LIUX\AppData\Local\Temp\ccTTRd9c.s 			page 9


 223 00f8 2E21     		movs	r1, #46
 224 00fa 1820     		movs	r0, #24
 225 00fc FFF7FEFF 		bl	I2C_Peripheral_WriteRegister
 226              	.LVL39:
 233:main.c        ****                                          LIS3DH_FIFO_CTRL_REG,
 234:main.c        ****                                          LIS3DH_FIFO_DISABLE);
 235:main.c        **** 
 236:main.c        ****     if (error == NO_ERROR)
 227              		.loc 1 236 0
 228 0100 60B9     		cbnz	r0, .L13
 237:main.c        ****     {
 238:main.c        ****         sprintf(message, "FIFO mode disabled");
 229              		.loc 1 238 0
 230 0102 07AC     		add	r4, sp, #28
 231              	.LVL40:
 232 0104 7C4D     		ldr	r5, .L29+40
 233 0106 0FCD     		ldmia	r5!, {r0, r1, r2, r3}
 234              	.LVL41:
 235 0108 0FC4     		stmia	r4!, {r0, r1, r2, r3}
 236 010a 2B68     		ldr	r3, [r5]
 237 010c 24F8023B 		strh	r3, [r4], #2	@ movhi
 238 0110 1B0C     		lsrs	r3, r3, #16
 239 0112 2370     		strb	r3, [r4]
 239:main.c        ****         UART_Debug_PutString(message);
 240              		.loc 1 239 0
 241 0114 07A8     		add	r0, sp, #28
 242 0116 FFF7FEFF 		bl	UART_Debug_PutString
 243              	.LVL42:
 244 011a 02E0     		b	.L14
 245              	.LVL43:
 246              	.L13:
 240:main.c        ****     }
 241:main.c        ****     else
 242:main.c        ****     {
 243:main.c        ****         UART_Debug_PutString("Error occurred writing FIFO mode");
 247              		.loc 1 243 0
 248 011c 7748     		ldr	r0, .L29+44
 249              	.LVL44:
 250 011e FFF7FEFF 		bl	UART_Debug_PutString
 251              	.LVL45:
 252              	.L14:
 244:main.c        ****     }
 245:main.c        **** 
 246:main.c        ****     /**********************************************************************************************
 247:main.c        ****     /*                                         Read Control Register 1 again                       
 248:main.c        ****     /**********************************************************************************************
 249:main.c        **** 
 250:main.c        ****     error = I2C_Peripheral_ReadRegister(LIS3DH_DEVICE_ADDRESS,
 253              		.loc 1 250 0
 254 0122 0DF11902 		add	r2, sp, #25
 255 0126 2021     		movs	r1, #32
 256 0128 1820     		movs	r0, #24
 257 012a FFF7FEFF 		bl	I2C_Peripheral_ReadRegister
 258              	.LVL46:
 251:main.c        ****                                         LIS3DH_CTRL_REG1,
 252:main.c        ****                                         &ctrl_reg1);
 253:main.c        **** 
ARM GAS  C:\Users\LIUX\AppData\Local\Temp\ccTTRd9c.s 			page 10


 254:main.c        ****     if (error == NO_ERROR)
 259              		.loc 1 254 0
 260 012e 48B9     		cbnz	r0, .L15
 255:main.c        ****     {
 256:main.c        ****         sprintf(message, "CONTROL REGISTER 1 after overwrite operation: 0x%02X\r\n", ctrl_reg1);
 261              		.loc 1 256 0
 262 0130 9DF81920 		ldrb	r2, [sp, #25]	@ zero_extendqisi2
 263 0134 7249     		ldr	r1, .L29+48
 264 0136 07A8     		add	r0, sp, #28
 265              	.LVL47:
 266 0138 FFF7FEFF 		bl	sprintf
 267              	.LVL48:
 257:main.c        ****         UART_Debug_PutString(message);
 268              		.loc 1 257 0
 269 013c 07A8     		add	r0, sp, #28
 270 013e FFF7FEFF 		bl	UART_Debug_PutString
 271              	.LVL49:
 272 0142 02E0     		b	.L16
 273              	.LVL50:
 274              	.L15:
 258:main.c        ****     }
 259:main.c        ****     else
 260:main.c        ****     {
 261:main.c        ****         UART_Debug_PutString("Error occurred during I2C comm to read control register 1\r\n");
 275              		.loc 1 261 0
 276 0144 6848     		ldr	r0, .L29+24
 277              	.LVL51:
 278 0146 FFF7FEFF 		bl	UART_Debug_PutString
 279              	.LVL52:
 280              	.L16:
 262:main.c        ****     }
 263:main.c        **** 
 264:main.c        ****     /**********************************************************************************************
 265:main.c        ****     /*                                   I2C Reading Temperature sensor CFG reg                    
 266:main.c        ****     /**********************************************************************************************
 267:main.c        **** 
 268:main.c        ****     uint8_t tmp_cfg_reg;
 269:main.c        **** 
 270:main.c        ****     error = I2C_Peripheral_ReadRegister(LIS3DH_DEVICE_ADDRESS,
 281              		.loc 1 270 0
 282 014a 06AA     		add	r2, sp, #24
 283 014c 1F21     		movs	r1, #31
 284 014e 1820     		movs	r0, #24
 285 0150 FFF7FEFF 		bl	I2C_Peripheral_ReadRegister
 286              	.LVL53:
 271:main.c        ****                                         LIS3DH_TEMP_CFG_REG,
 272:main.c        ****                                         &tmp_cfg_reg);
 273:main.c        **** 
 274:main.c        ****     if (error == NO_ERROR)
 287              		.loc 1 274 0
 288 0154 48B9     		cbnz	r0, .L17
 275:main.c        ****     {
 276:main.c        ****         sprintf(message, "TEMPERATURE CONFIG REGISTER: 0x%02X\r\n", tmp_cfg_reg);
 289              		.loc 1 276 0
 290 0156 9DF81820 		ldrb	r2, [sp, #24]	@ zero_extendqisi2
 291 015a 6A49     		ldr	r1, .L29+52
 292 015c 07A8     		add	r0, sp, #28
ARM GAS  C:\Users\LIUX\AppData\Local\Temp\ccTTRd9c.s 			page 11


 293              	.LVL54:
 294 015e FFF7FEFF 		bl	sprintf
 295              	.LVL55:
 277:main.c        ****         UART_Debug_PutString(message);
 296              		.loc 1 277 0
 297 0162 07A8     		add	r0, sp, #28
 298 0164 FFF7FEFF 		bl	UART_Debug_PutString
 299              	.LVL56:
 300 0168 02E0     		b	.L18
 301              	.LVL57:
 302              	.L17:
 278:main.c        ****     }
 279:main.c        ****     else
 280:main.c        ****     {
 281:main.c        ****         UART_Debug_PutString("Error occurred during I2C comm to read temperature config register\r\
 303              		.loc 1 281 0
 304 016a 6748     		ldr	r0, .L29+56
 305              	.LVL58:
 306 016c FFF7FEFF 		bl	UART_Debug_PutString
 307              	.LVL59:
 308              	.L18:
 282:main.c        ****     }
 283:main.c        **** 
 284:main.c        **** 
 285:main.c        ****     tmp_cfg_reg = LIS3DH_TEMP_CFG_REG_ACTIVE; // must be changed to the appropriate value
 309              		.loc 1 285 0
 310 0170 C022     		movs	r2, #192
 311 0172 14AC     		add	r4, sp, #80
 312 0174 04F8382D 		strb	r2, [r4, #-56]!
 286:main.c        **** 
 287:main.c        ****     error = I2C_Peripheral_WriteRegister(LIS3DH_DEVICE_ADDRESS,
 313              		.loc 1 287 0
 314 0178 1F21     		movs	r1, #31
 315 017a 1820     		movs	r0, #24
 316 017c FFF7FEFF 		bl	I2C_Peripheral_WriteRegister
 317              	.LVL60:
 288:main.c        ****                                          LIS3DH_TEMP_CFG_REG,
 289:main.c        ****                                          tmp_cfg_reg);
 290:main.c        **** 
 291:main.c        ****     error = I2C_Peripheral_ReadRegister(LIS3DH_DEVICE_ADDRESS,
 318              		.loc 1 291 0
 319 0180 2246     		mov	r2, r4
 320 0182 1F21     		movs	r1, #31
 321 0184 1820     		movs	r0, #24
 322 0186 FFF7FEFF 		bl	I2C_Peripheral_ReadRegister
 323              	.LVL61:
 292:main.c        ****                                         LIS3DH_TEMP_CFG_REG,
 293:main.c        ****                                         &tmp_cfg_reg);
 294:main.c        **** 
 295:main.c        **** 
 296:main.c        ****     if (error == NO_ERROR)
 324              		.loc 1 296 0
 325 018a 48B9     		cbnz	r0, .L19
 297:main.c        ****     {
 298:main.c        ****         sprintf(message, "TEMPERATURE CONFIG REGISTER after being updated: 0x%02X\r\n", tmp_cfg_reg
 326              		.loc 1 298 0
 327 018c 9DF81820 		ldrb	r2, [sp, #24]	@ zero_extendqisi2
ARM GAS  C:\Users\LIUX\AppData\Local\Temp\ccTTRd9c.s 			page 12


 328 0190 5E49     		ldr	r1, .L29+60
 329 0192 07A8     		add	r0, sp, #28
 330              	.LVL62:
 331 0194 FFF7FEFF 		bl	sprintf
 332              	.LVL63:
 299:main.c        ****         UART_Debug_PutString(message);
 333              		.loc 1 299 0
 334 0198 07A8     		add	r0, sp, #28
 335 019a FFF7FEFF 		bl	UART_Debug_PutString
 336              	.LVL64:
 337 019e 02E0     		b	.L20
 338              	.LVL65:
 339              	.L19:
 300:main.c        ****     }
 301:main.c        ****     else
 302:main.c        ****     {
 303:main.c        ****         UART_Debug_PutString("Error occurred during I2C comm to read temperature config register\r\
 340              		.loc 1 303 0
 341 01a0 5948     		ldr	r0, .L29+56
 342              	.LVL66:
 343 01a2 FFF7FEFF 		bl	UART_Debug_PutString
 344              	.LVL67:
 345              	.L20:
 304:main.c        ****     }
 305:main.c        **** 
 306:main.c        ****     uint8_t ctrl_reg4;
 307:main.c        **** 
 308:main.c        ****     error = I2C_Peripheral_ReadRegister(LIS3DH_DEVICE_ADDRESS,
 346              		.loc 1 308 0
 347 01a6 0DF11702 		add	r2, sp, #23
 348 01aa 2321     		movs	r1, #35
 349 01ac 1820     		movs	r0, #24
 350 01ae FFF7FEFF 		bl	I2C_Peripheral_ReadRegister
 351              	.LVL68:
 309:main.c        ****                                         LIS3DH_CTRL_REG4,
 310:main.c        ****                                         &ctrl_reg4);
 311:main.c        **** 
 312:main.c        ****     if (error == NO_ERROR)
 352              		.loc 1 312 0
 353 01b2 48B9     		cbnz	r0, .L21
 313:main.c        ****     {
 314:main.c        ****         sprintf(message, "CONTROL REGISTER 4: 0x%02X\r\n", ctrl_reg4);
 354              		.loc 1 314 0
 355 01b4 9DF81720 		ldrb	r2, [sp, #23]	@ zero_extendqisi2
 356 01b8 5549     		ldr	r1, .L29+64
 357 01ba 07A8     		add	r0, sp, #28
 358              	.LVL69:
 359 01bc FFF7FEFF 		bl	sprintf
 360              	.LVL70:
 315:main.c        ****         UART_Debug_PutString(message);
 361              		.loc 1 315 0
 362 01c0 07A8     		add	r0, sp, #28
 363 01c2 FFF7FEFF 		bl	UART_Debug_PutString
 364              	.LVL71:
 365 01c6 02E0     		b	.L22
 366              	.LVL72:
 367              	.L21:
ARM GAS  C:\Users\LIUX\AppData\Local\Temp\ccTTRd9c.s 			page 13


 316:main.c        ****     }
 317:main.c        ****     else
 318:main.c        ****     {
 319:main.c        ****         UART_Debug_PutString("Error occurred during I2C comm to read control register4\r\n");
 368              		.loc 1 319 0
 369 01c8 5248     		ldr	r0, .L29+68
 370              	.LVL73:
 371 01ca FFF7FEFF 		bl	UART_Debug_PutString
 372              	.LVL74:
 373              	.L22:
 320:main.c        ****     }
 321:main.c        **** 
 322:main.c        **** 
 323:main.c        ****     ctrl_reg4 = LIS3DH_CTRL_REG4_BDU_ACTIVE; // must be changed to the appropriate value
 374              		.loc 1 323 0
 375 01ce 9822     		movs	r2, #152
 376 01d0 14AC     		add	r4, sp, #80
 377 01d2 04F8392D 		strb	r2, [r4, #-57]!
 324:main.c        **** 
 325:main.c        ****     error = I2C_Peripheral_WriteRegister(LIS3DH_DEVICE_ADDRESS,
 378              		.loc 1 325 0
 379 01d6 2321     		movs	r1, #35
 380 01d8 1820     		movs	r0, #24
 381 01da FFF7FEFF 		bl	I2C_Peripheral_WriteRegister
 382              	.LVL75:
 326:main.c        ****                                          LIS3DH_CTRL_REG4,
 327:main.c        ****                                          ctrl_reg4);
 328:main.c        **** 
 329:main.c        ****     error = I2C_Peripheral_ReadRegister(LIS3DH_DEVICE_ADDRESS,
 383              		.loc 1 329 0
 384 01de 2246     		mov	r2, r4
 385 01e0 2321     		movs	r1, #35
 386 01e2 1820     		movs	r0, #24
 387 01e4 FFF7FEFF 		bl	I2C_Peripheral_ReadRegister
 388              	.LVL76:
 330:main.c        ****                                         LIS3DH_CTRL_REG4,
 331:main.c        ****                                         &ctrl_reg4);
 332:main.c        **** 
 333:main.c        **** 
 334:main.c        ****     if (error == NO_ERROR)
 389              		.loc 1 334 0
 390 01e8 48B9     		cbnz	r0, .L23
 335:main.c        ****     {
 336:main.c        ****         sprintf(message, "CONTROL REGISTER 4 after being updated: 0x%02X\r\n", ctrl_reg4);
 391              		.loc 1 336 0
 392 01ea 9DF81720 		ldrb	r2, [sp, #23]	@ zero_extendqisi2
 393 01ee 4A49     		ldr	r1, .L29+72
 394 01f0 07A8     		add	r0, sp, #28
 395              	.LVL77:
 396 01f2 FFF7FEFF 		bl	sprintf
 397              	.LVL78:
 337:main.c        ****         UART_Debug_PutString(message);
 398              		.loc 1 337 0
 399 01f6 07A8     		add	r0, sp, #28
 400 01f8 FFF7FEFF 		bl	UART_Debug_PutString
 401              	.LVL79:
 402 01fc 02E0     		b	.L24
ARM GAS  C:\Users\LIUX\AppData\Local\Temp\ccTTRd9c.s 			page 14


 403              	.LVL80:
 404              	.L23:
 338:main.c        ****     }
 339:main.c        ****     else
 340:main.c        ****     {
 341:main.c        ****         UART_Debug_PutString("Error occurred during I2C comm to read control register4\r\n");
 405              		.loc 1 341 0
 406 01fe 4548     		ldr	r0, .L29+68
 407              	.LVL81:
 408 0200 FFF7FEFF 		bl	UART_Debug_PutString
 409              	.LVL82:
 410              	.L24:
 342:main.c        ****     }
 343:main.c        **** 
 344:main.c        **** 
 345:main.c        ****     /**********************************************************************************************
 346:main.c        ****     /*                                             VARIABLE SETTINGS                               
 347:main.c        ****     /**********************************************************************************************
 348:main.c        ****     
 349:main.c        ****     uint16_t xAcc;  // RAW DATA x-axis Acceleration 
 350:main.c        ****     uint16_t yAcc;
 351:main.c        ****     uint16_t zAcc;
 352:main.c        ****     
 353:main.c        ****     uint16_t const gravity = 0x0079; 
 354:main.c        ****     float32 const scale_factor = 9810/gravity; 
 355:main.c        ****     
 356:main.c        ****     /*
 357:main.c        ****                     9.81 [m/s^2]                              1g
 358:main.c        ****     scale_factor = -------------- *1000 = ----------------------------------------------- * (to res
 359:main.c        ****                        0x0079              Value sensed on z-axis representing 9.81m/s^2
 360:main.c        ****     */
 361:main.c        ****     
 362:main.c        ****     int16_t xAms16; // Float Acceleration times scale factor converted in 16 bit
 363:main.c        ****     int16_t yAms16;
 364:main.c        ****     int16_t zAms16;
 365:main.c        **** 
 366:main.c        ****     uint8_t header = 0xA0;
 367:main.c        ****     uint8_t tail = 0xC0;
 368:main.c        **** 
 369:main.c        ****     uint8_t check;
 370:main.c        ****     uint8_t status; // status of the status register
 371:main.c        **** 
 372:main.c        ****     uint8_t OutArray[8]; 
 373:main.c        ****     OutArray[0] = header;
 411              		.loc 1 373 0
 412 0204 A023     		movs	r3, #160
 413 0206 8DF80C30 		strb	r3, [sp, #12]
 374:main.c        ****     uint8_t AccData[6]; 
 375:main.c        ****     OutArray[7] = tail;
 414              		.loc 1 375 0
 415 020a C023     		movs	r3, #192
 416 020c 8DF81330 		strb	r3, [sp, #19]
 417              	.L26:
 376:main.c        **** 
 377:main.c        ****     /**********************************************************************************************
 378:main.c        ****     /*                                                    CYCLE                                    
 379:main.c        ****     /**********************************************************************************************
ARM GAS  C:\Users\LIUX\AppData\Local\Temp\ccTTRd9c.s 			page 15


 380:main.c        ****     
 381:main.c        ****     for(;;)
 382:main.c        ****     {
 383:main.c        **** 
 384:main.c        ****         // gathering the LIS3DH_STATUS_REG value
 385:main.c        ****         error = I2C_Peripheral_ReadRegister(LIS3DH_DEVICE_ADDRESS,
 418              		.loc 1 385 0
 419 0210 0DF11602 		add	r2, sp, #22
 420 0214 2721     		movs	r1, #39
 421 0216 1820     		movs	r0, #24
 422 0218 FFF7FEFF 		bl	I2C_Peripheral_ReadRegister
 423              	.LVL83:
 386:main.c        ****                                             LIS3DH_STATUS_REG,
 387:main.c        ****                                             &status);
 388:main.c        **** 
 389:main.c        ****         // Check on ZYXDA cell of status register
 390:main.c        ****         check = status & LIS3DH_STATUS_REG_ZYXDA;
 424              		.loc 1 390 0
 425 021c 9DF81630 		ldrb	r3, [sp, #22]	@ zero_extendqisi2
 426              	.LVL84:
 391:main.c        **** 
 392:main.c        ****         // if new data are available
 393:main.c        ****         if(check == LIS3DH_STATUS_REG_ZYXDA){
 427              		.loc 1 393 0
 428 0220 13F0080F 		tst	r3, #8
 429 0224 05D0     		beq	.L25
 394:main.c        **** 
 395:main.c        ****         // gathering only x Acc
 396:main.c        ****         error = I2C_Peripheral_ReadRegisterMulti(LIS3DH_DEVICE_ADDRESS, // device_address
 430              		.loc 1 396 0
 431 0226 01AB     		add	r3, sp, #4
 432              	.LVL85:
 433 0228 0622     		movs	r2, #6
 434 022a 2821     		movs	r1, #40
 435 022c 1820     		movs	r0, #24
 436              	.LVL86:
 437 022e FFF7FEFF 		bl	I2C_Peripheral_ReadRegisterMulti
 438              	.LVL87:
 439              	.L25:
 397:main.c        ****                                                  LIS3DH_OUT_X_L,        // register_address LIS3DH_
 398:main.c        ****                                                  6,                     // register_count 6
 399:main.c        ****                                                  &AccData[0]);          // data pointer
 400:main.c        **** 
 401:main.c        ****         }
 402:main.c        **** 
 403:main.c        ****         if(error == NO_ERROR)
 440              		.loc 1 403 0
 441 0232 0028     		cmp	r0, #0
 442 0234 ECD1     		bne	.L26
 404:main.c        ****         {
 405:main.c        **** 
 406:main.c        ****             /*
 407:main.c        ****             Request 2.3.3. 
 408:main.c        ****             Convert the 3 axial outputs of the Accelerometer 
 409:main.c        ****             to a floating point in m/s2 units.
 410:main.c        ****             */
 411:main.c        **** 
ARM GAS  C:\Users\LIUX\AppData\Local\Temp\ccTTRd9c.s 			page 16


 412:main.c        ****             xAcc = (int16_t)(((AccData[0] | AccData[1]<<8 )))>>6;       
 443              		.loc 1 412 0
 444 0236 9DF80430 		ldrb	r3, [sp, #4]	@ zero_extendqisi2
 445 023a 9DF80500 		ldrb	r0, [sp, #5]	@ zero_extendqisi2
 446              	.LVL88:
 447 023e 43EA0020 		orr	r0, r3, r0, lsl #8
 448 0242 40F38910 		sbfx	r0, r0, #6, #10
 449              	.LVL89:
 413:main.c        ****             xAms16 = (int16_t)(xAcc*scale_factor);                      
 450              		.loc 1 413 0
 451 0246 80B2     		uxth	r0, r0
 452 0248 FFF7FEFF 		bl	__aeabi_i2f
 453              	.LVL90:
 454 024c 3349     		ldr	r1, .L29+76
 455 024e FFF7FEFF 		bl	__aeabi_fmul
 456              	.LVL91:
 457 0252 FFF7FEFF 		bl	__aeabi_f2iz
 458              	.LVL92:
 459 0256 00B2     		sxth	r0, r0
 460              	.LVL93:
 414:main.c        ****             OutArray[1] = (uint8_t)(xAms16 >> 8);                       // LSB
 461              		.loc 1 414 0
 462 0258 C0F30723 		ubfx	r3, r0, #8, #8
 463 025c 8DF80D30 		strb	r3, [sp, #13]
 415:main.c        ****             OutArray[2] = (uint8_t)(xAms16 & 0xFF);                     // MSB
 464              		.loc 1 415 0
 465 0260 8DF80E00 		strb	r0, [sp, #14]
 416:main.c        ****             
 417:main.c        ****             yAcc = (int16_t)(((AccData[2] | AccData[3]<<8 )))>>6;
 466              		.loc 1 417 0
 467 0264 9DF80630 		ldrb	r3, [sp, #6]	@ zero_extendqisi2
 468 0268 9DF80700 		ldrb	r0, [sp, #7]	@ zero_extendqisi2
 469              	.LVL94:
 470 026c 43EA0020 		orr	r0, r3, r0, lsl #8
 471 0270 40F38910 		sbfx	r0, r0, #6, #10
 472              	.LVL95:
 418:main.c        ****             yAms16 = (int16_t)(yAcc*scale_factor); 
 473              		.loc 1 418 0
 474 0274 80B2     		uxth	r0, r0
 475 0276 FFF7FEFF 		bl	__aeabi_i2f
 476              	.LVL96:
 477 027a 2849     		ldr	r1, .L29+76
 478 027c FFF7FEFF 		bl	__aeabi_fmul
 479              	.LVL97:
 480 0280 FFF7FEFF 		bl	__aeabi_f2iz
 481              	.LVL98:
 482 0284 00B2     		sxth	r0, r0
 483              	.LVL99:
 419:main.c        ****             OutArray[3] = (uint8_t)(yAms16 >> 8);                       // LSB
 484              		.loc 1 419 0
 485 0286 C0F30723 		ubfx	r3, r0, #8, #8
 486 028a 8DF80F30 		strb	r3, [sp, #15]
 420:main.c        ****             OutArray[4] = (uint8_t)(yAms16 & 0xFF);                     // MSB
 487              		.loc 1 420 0
 488 028e 8DF81000 		strb	r0, [sp, #16]
 421:main.c        ****             
 422:main.c        ****             zAcc = (int16_t)(((AccData[4] | AccData[5]<<8 )))>>6;
ARM GAS  C:\Users\LIUX\AppData\Local\Temp\ccTTRd9c.s 			page 17


 489              		.loc 1 422 0
 490 0292 9DF80830 		ldrb	r3, [sp, #8]	@ zero_extendqisi2
 491 0296 9DF80900 		ldrb	r0, [sp, #9]	@ zero_extendqisi2
 492              	.LVL100:
 493 029a 43EA0020 		orr	r0, r3, r0, lsl #8
 494 029e 40F38910 		sbfx	r0, r0, #6, #10
 495              	.LVL101:
 423:main.c        ****             zAms16 = (int16_t)(zAcc*scale_factor); 
 496              		.loc 1 423 0
 497 02a2 80B2     		uxth	r0, r0
 498 02a4 FFF7FEFF 		bl	__aeabi_i2f
 499              	.LVL102:
 500 02a8 1C49     		ldr	r1, .L29+76
 501 02aa FFF7FEFF 		bl	__aeabi_fmul
 502              	.LVL103:
 503 02ae FFF7FEFF 		bl	__aeabi_f2iz
 504              	.LVL104:
 505 02b2 00B2     		sxth	r0, r0
 506              	.LVL105:
 424:main.c        ****             OutArray[5] = (uint8_t)(zAms16 >> 8);                       // LSB
 507              		.loc 1 424 0
 508 02b4 C0F30723 		ubfx	r3, r0, #8, #8
 509 02b8 8DF81130 		strb	r3, [sp, #17]
 425:main.c        ****             OutArray[6] = (uint8_t)(zAms16 & 0xFF);                     // MSB
 510              		.loc 1 425 0
 511 02bc 8DF81200 		strb	r0, [sp, #18]
 426:main.c        ****             
 427:main.c        ****             CyDelay(10);
 512              		.loc 1 427 0
 513 02c0 0A20     		movs	r0, #10
 514              	.LVL106:
 515 02c2 FFF7FEFF 		bl	CyDelay
 516              	.LVL107:
 428:main.c        ****             UART_Debug_PutArray(OutArray, 8);
 517              		.loc 1 428 0
 518 02c6 0821     		movs	r1, #8
 519 02c8 03A8     		add	r0, sp, #12
 520 02ca FFF7FEFF 		bl	UART_Debug_PutArray
 521              	.LVL108:
 522 02ce 9FE7     		b	.L26
 523              	.L30:
 524              		.align	2
 525              	.L29:
 526 02d0 00000000 		.word	.LC0
 527 02d4 20000000 		.word	.LC1
 528 02d8 48000000 		.word	.LC2
 529 02dc 6C000000 		.word	.LC3
 530 02e0 88000000 		.word	.LC4
 531 02e4 C4000000 		.word	.LC5
 532 02e8 E4000000 		.word	.LC6
 533 02ec 20010000 		.word	.LC7
 534 02f0 3C010000 		.word	.LC8
 535 02f4 74010000 		.word	.LC9
 536 02f8 B0010000 		.word	.LC10
 537 02fc C4010000 		.word	.LC11
 538 0300 E8010000 		.word	.LC12
 539 0304 20020000 		.word	.LC13
ARM GAS  C:\Users\LIUX\AppData\Local\Temp\ccTTRd9c.s 			page 18


 540 0308 48020000 		.word	.LC14
 541 030c 90020000 		.word	.LC15
 542 0310 CC020000 		.word	.LC16
 543 0314 EC020000 		.word	.LC17
 544 0318 28030000 		.word	.LC18
 545 031c 0000A242 		.word	1117913088
 546              		.cfi_endproc
 547              	.LFE64:
 548              		.size	main, .-main
 549              		.section	.rodata.str1.4,"aMS",%progbits,1
 550              		.align	2
 551              	.LC0:
 552 0000 44657669 		.ascii	"Device 0x%02X is connected\015\012\000"
 552      63652030 
 552      78253032 
 552      58206973 
 552      20636F6E 
 553 001d 000000   		.space	3
 554              	.LC1:
 555 0020 57484F20 		.ascii	"WHO AM I REG: 0x%02X [Expected: 0x33]\015\012\000"
 555      414D2049 
 555      20524547 
 555      3A203078 
 555      25303258 
 556              	.LC2:
 557 0048 4572726F 		.ascii	"Error occurred during I2C comm\015\012\000"
 557      72206F63 
 557      63757272 
 557      65642064 
 557      7572696E 
 558 0069 000000   		.space	3
 559              	.LC3:
 560 006c 53544154 		.ascii	"STATUS REGISTER: 0x%02X\015\012\000"
 560      55532052 
 560      45474953 
 560      5445523A 
 560      20307825 
 561 0086 0000     		.space	2
 562              	.LC4:
 563 0088 4572726F 		.ascii	"Error occurred during I2C comm to read status regis"
 563      72206F63 
 563      63757272 
 563      65642064 
 563      7572696E 
 564 00bb 7465720D 		.ascii	"ter\015\012\000"
 564      0A00
 565 00c1 000000   		.space	3
 566              	.LC5:
 567 00c4 434F4E54 		.ascii	"CONTROL REGISTER 1: 0x%02X\015\012\000"
 567      524F4C20 
 567      52454749 
 567      53544552 
 567      20313A20 
 568 00e1 000000   		.space	3
 569              	.LC6:
 570 00e4 4572726F 		.ascii	"Error occurred during I2C comm to read control regi"
 570      72206F63 
ARM GAS  C:\Users\LIUX\AppData\Local\Temp\ccTTRd9c.s 			page 19


 570      63757272 
 570      65642064 
 570      7572696E 
 571 0117 73746572 		.ascii	"ster 1\015\012\000"
 571      20310D0A 
 571      00
 572              	.LC7:
 573 0120 0D0A5772 		.ascii	"\015\012Writing new values..\015\012\000"
 573      6974696E 
 573      67206E65 
 573      77207661 
 573      6C756573 
 574 0139 000000   		.space	3
 575              	.LC8:
 576 013c 434F4E54 		.ascii	"CONTROL REGISTER 1 successfully written as: 0x%02X\015"
 576      524F4C20 
 576      52454749 
 576      53544552 
 576      20312073 
 577 016f 0A00     		.ascii	"\012\000"
 578 0171 000000   		.space	3
 579              	.LC9:
 580 0174 4572726F 		.ascii	"Error occurred during I2C comm to set control regis"
 580      72206F63 
 580      63757272 
 580      65642064 
 580      7572696E 
 581 01a7 74657220 		.ascii	"ter 1\015\012\000"
 581      310D0A00 
 582 01af 00       		.space	1
 583              	.LC10:
 584 01b0 4649464F 		.ascii	"FIFO mode disabled\000"
 584      206D6F64 
 584      65206469 
 584      7361626C 
 584      656400
 585 01c3 00       		.space	1
 586              	.LC11:
 587 01c4 4572726F 		.ascii	"Error occurred writing FIFO mode\000"
 587      72206F63 
 587      63757272 
 587      65642077 
 587      72697469 
 588 01e5 000000   		.space	3
 589              	.LC12:
 590 01e8 434F4E54 		.ascii	"CONTROL REGISTER 1 after overwrite operation: 0x%02"
 590      524F4C20 
 590      52454749 
 590      53544552 
 590      20312061 
 591 021b 580D0A00 		.ascii	"X\015\012\000"
 592 021f 00       		.space	1
 593              	.LC13:
 594 0220 54454D50 		.ascii	"TEMPERATURE CONFIG REGISTER: 0x%02X\015\012\000"
 594      45524154 
 594      55524520 
 594      434F4E46 
ARM GAS  C:\Users\LIUX\AppData\Local\Temp\ccTTRd9c.s 			page 20


 594      49472052 
 595 0246 0000     		.space	2
 596              	.LC14:
 597 0248 4572726F 		.ascii	"Error occurred during I2C comm to read temperature "
 597      72206F63 
 597      63757272 
 597      65642064 
 597      7572696E 
 598 027b 636F6E66 		.ascii	"config register\015\012\000"
 598      69672072 
 598      65676973 
 598      7465720D 
 598      0A00
 599 028d 000000   		.space	3
 600              	.LC15:
 601 0290 54454D50 		.ascii	"TEMPERATURE CONFIG REGISTER after being updated: 0x"
 601      45524154 
 601      55524520 
 601      434F4E46 
 601      49472052 
 602 02c3 25303258 		.ascii	"%02X\015\012\000"
 602      0D0A00
 603 02ca 0000     		.space	2
 604              	.LC16:
 605 02cc 434F4E54 		.ascii	"CONTROL REGISTER 4: 0x%02X\015\012\000"
 605      524F4C20 
 605      52454749 
 605      53544552 
 605      20343A20 
 606 02e9 000000   		.space	3
 607              	.LC17:
 608 02ec 4572726F 		.ascii	"Error occurred during I2C comm to read control regi"
 608      72206F63 
 608      63757272 
 608      65642064 
 608      7572696E 
 609 031f 73746572 		.ascii	"ster4\015\012\000"
 609      340D0A00 
 610 0327 00       		.space	1
 611              	.LC18:
 612 0328 434F4E54 		.ascii	"CONTROL REGISTER 4 after being updated: 0x%02X\015\012"
 612      524F4C20 
 612      52454749 
 612      53544552 
 612      20342061 
 613 0358 00       		.ascii	"\000"
 614              		.text
 615              	.Letext0:
 616              		.file 2 "c:\\program files\\cypress\\psoc creator\\4.3\\psoc creator\\import\\gnu\\arm\\5.4.1\\arm
 617              		.file 3 "c:\\program files\\cypress\\psoc creator\\4.3\\psoc creator\\import\\gnu\\arm\\5.4.1\\arm
 618              		.file 4 "Generated_Source\\PSoC5/cytypes.h"
 619              		.file 5 "ErrorCodes.h"
 620              		.file 6 "I2C_Interface.h"
 621              		.file 7 "c:\\program files\\cypress\\psoc creator\\4.3\\psoc creator\\import\\gnu\\arm\\5.4.1\\arm
 622              		.file 8 "Generated_Source\\PSoC5/UART_Debug.h"
 623              		.file 9 "Generated_Source\\PSoC5/CyLib.h"
 624              		.file 10 "Generated_Source\\PSoC5/core_cm3.h"
ARM GAS  C:\Users\LIUX\AppData\Local\Temp\ccTTRd9c.s 			page 21

