ARM GAS  C:\Users\LIUX\AppData\Local\Temp\ccf0MqdO.s 			page 1


   1              		.syntax unified
   2              		.cpu cortex-m3
   3              		.fpu softvfp
   4              		.eabi_attribute 20, 1
   5              		.eabi_attribute 21, 1
   6              		.eabi_attribute 23, 3
   7              		.eabi_attribute 24, 1
   8              		.eabi_attribute 25, 1
   9              		.eabi_attribute 26, 1
  10              		.eabi_attribute 30, 1
  11              		.eabi_attribute 34, 1
  12              		.eabi_attribute 18, 4
  13              		.thumb
  14              		.syntax unified
  15              		.file	"main.c"
  16              		.text
  17              	.Ltext0:
  18              		.cfi_sections	.debug_frame
  19              		.section	.text.main,"ax",%progbits
  20              		.align	2
  21              		.global	main
  22              		.thumb
  23              		.thumb_func
  24              		.type	main, %function
  25              	main:
  26              	.LFB64:
  27              		.file 1 "main.c"
   1:main.c        **** /**
   2:main.c        **** * \brief Main source file for the I2C-Master project.
   3:main.c        **** *
   4:main.c        **** * In this project we set up a I2C master device with
   5:main.c        **** * to understand the I2C protocol and communicate with a
   6:main.c        **** * a I2C Slave device (LIS3DH Accelerometer).
   7:main.c        **** *
   8:main.c        **** * \author Gabriele Belotti
   9:main.c        **** * \date , 2020
  10:main.c        **** */
  11:main.c        **** 
  12:main.c        ****     /**********************************************************************************************
  13:main.c        ****     /*                                            INCLUDE HEADER FILES                             
  14:main.c        ****     /**********************************************************************************************
  15:main.c        **** 
  16:main.c        **** #include "I2C_Interface.h"
  17:main.c        **** #include "project.h"
  18:main.c        **** #include "stdio.h"
  19:main.c        **** 
  20:main.c        ****     /**********************************************************************************************
  21:main.c        ****     /*                                               DEFINE ADDRESSES                              
  22:main.c        ****     /**********************************************************************************************
  23:main.c        **** 
  24:main.c        **** // 7-bit I2C address of the slave device.
  25:main.c        **** #define LIS3DH_DEVICE_ADDRESS 0x18
  26:main.c        **** 
  27:main.c        **** // Address of the WHO AM I register
  28:main.c        **** #define LIS3DH_WHO_AM_I_REG_ADDR 0x0F
  29:main.c        **** 
  30:main.c        **** /* Request 2.2.1.1: Correctly set the control registers of the 
ARM GAS  C:\Users\LIUX\AppData\Local\Temp\ccf0MqdO.s 			page 2


  31:main.c        **** *                   LIS3DH accelerometer to output 3 Axis accelerometer
  32:main.c        **** *                   data in Normal Mode at 100 Hz...
  33:main.c        **** *
  34:main.c        **** * From datasheet:
  35:main.c        **** *
  36:main.c        **** *   |**************** CTRL_REG1 register ****************|
  37:main.c        **** *   | ODR3 | ODR2 | ODR1 | ODR0 | LPen | Zen | Yen | Xen |
  38:main.c        **** *   |  0   |  1   |  0   |  1   |  0   |  1  |  1  |  1  | 0x57
  39:main.c        **** *
  40:main.c        **** *   ODR[3:0]:   Data rate selection. Default value: 0000
  41:main.c        **** *                                                   0101 HR / Normal / Low-power mode (100 Hz)
  42:main.c        **** *   Zen:        Z-axis enable. Default value: 1
  43:main.c        **** *   Yen:        Y-axis enable. Default value: 1
  44:main.c        **** *   Xen:        X-axis enable. Default value: 1
  45:main.c        **** *                             (0: X-axis disabled; 1: X-axis enabled)
  46:main.c        **** */
  47:main.c        **** // Address of the Control register 1 - CTRL_REG1(20h)
  48:main.c        **** #define LIS3DH_CTRL_REG1 0x20
  49:main.c        **** 
  50:main.c        **** // Hex value to set normal mode to the accelerator
  51:main.c        **** #define LIS3DH_NORMAL_MODE_CTRL_REG1 0x57
  52:main.c        **** 
  53:main.c        **** /* Request 2.2.1.2: ...in the ±2.0g FSR.
  54:main.c        **** *
  55:main.c        **** * From datasheet:a
  56:main.c        **** *
  57:main.c        **** *    FS[1:0]: Full-scale selection. default value: 00
  58:main.c        **** *             (00: ±2 g; 01: ±4 g; 10: ±8 g; 11: ±16 g)
  59:main.c        **** *
  60:main.c        **** *   |************ CTRL_REG4 register **************|
  61:main.c        **** *   | BDU | BLE | FS1 | FS0 | HR | ST1 | ST0 | SIM |
  62:main.c        **** *   |  1  |  0  |  0  |  0  | 0  |  0  |  0  |  0  | 0x80
  63:main.c        **** */
  64:main.c        **** 
  65:main.c        **** // Address of the Control register 4 - CTRL_REG4(23h)
  66:main.c        **** #define LIS3DH_CTRL_REG4 0x23
  67:main.c        **** #define LIS3DH_CTRL_REG4_BDU_ACTIVE 0x80
  68:main.c        **** 
  69:main.c        **** /* Request 2.2.2: Read Output registers at a correct frequency  
  70:main.c        **** *                 (verify new Data is available using StatusReg
  71:main.c        **** *                 information). Carefully think about the possible
  72:main.c        **** *                 options to read data at a constant rate.
  73:main.c        **** *
  74:main.c        **** *   |*************** STATUS_REG(27h) ***************|
  75:main.c        **** *   |ZYXOR| ZOR | YOR | XOR |ZYXDA| ZDA | YDA | XDA |
  76:main.c        **** *   |  0  |  0  |  0  |  0  |  0  |  0  |  0  |  0  | 0x0
  77:main.c        **** */
  78:main.c        **** 
  79:main.c        **** // Address of the Status register
  80:main.c        **** #define LIS3DH_STATUS_REG 0x27
  81:main.c        **** 
  82:main.c        **** // ZYXDA Mask: X, Y and Z-axis new data available. Default value: 0
  83:main.c        **** #define LIS3DH_STATUS_REG_ZYXDA 0x8
  84:main.c        **** 
  85:main.c        **** /* OUT_X_L (28h), OUT_X_H (29h)
  86:main.c        **** *  OUT_Y_L (2Ah), OUT_Y_H (2Bh)
  87:main.c        **** *  OUT_Z_L (2Ch), OUT_Z_H (2Dh) */
ARM GAS  C:\Users\LIUX\AppData\Local\Temp\ccf0MqdO.s 			page 3


  88:main.c        **** #define LIS3DH_OUT_X_L 0x28
  89:main.c        **** 
  90:main.c        **** // Address of FIFO control register 
  91:main.c        **** // Address of the Control register 5 - CTRL_REG5(20h)
  92:main.c        **** #define LIS3DH_CTRL_REG5 0x24
  93:main.c        **** #define LIS3DH_CTRL_REG5_FIFO_DISABLE 0x0 // FIFO 0x40
  94:main.c        **** #define LIS3DH_FIFO_CTRL_REG 0x2E
  95:main.c        **** #define LIS3DH_FIFO_DISABLE 0x0 // FIFO 0x40 / bypass 0x0 / Stream 0x80 / stream to fifo 0xC0
  96:main.c        **** 
  97:main.c        **** // Address of the Temperature Sensor Configuration register
  98:main.c        **** #define LIS3DH_TEMP_CFG_REG 0x1F
  99:main.c        **** #define LIS3DH_TEMP_CFG_REG_ACTIVE 0xC0
 100:main.c        **** 
 101:main.c        **** // Address of the ADC output LSB register
 102:main.c        **** #define LIS3DH_OUT_ADC_3L 0x0C
 103:main.c        **** 
 104:main.c        **** // Address of the ADC output MSB register
 105:main.c        **** #define LIS3DH_OUT_ADC_3H 0x0D
 106:main.c        **** 
 107:main.c        ****     /**********************************************************************************************
 108:main.c        ****     /*                                                    MAIN                                     
 109:main.c        ****     /**********************************************************************************************
 110:main.c        **** 
 111:main.c        **** int main(void)
 112:main.c        **** {
  28              		.loc 1 112 0
  29              		.cfi_startproc
  30              		@ args = 0, pretend = 0, frame = 80
  31              		@ frame_needed = 0, uses_anonymous_args = 0
  32 0000 30B5     		push	{r4, r5, lr}
  33              		.cfi_def_cfa_offset 12
  34              		.cfi_offset 4, -12
  35              		.cfi_offset 5, -8
  36              		.cfi_offset 14, -4
  37 0002 95B0     		sub	sp, sp, #84
  38              		.cfi_def_cfa_offset 96
 113:main.c        ****     CyGlobalIntEnable; /* Enable global interrupts. */
  39              		.loc 1 113 0
  40              		.syntax unified
  41              	@ 113 "main.c" 1
  42 0004 62B6     		CPSIE   i
  43              	@ 0 "" 2
 114:main.c        **** 
 115:main.c        ****     /* Place your initialization/startup code here (e.g. MyInst_Start()) */
 116:main.c        ****     I2C_Peripheral_Start();
  44              		.loc 1 116 0
  45              		.thumb
  46              		.syntax unified
  47 0006 FFF7FEFF 		bl	I2C_Peripheral_Start
  48              	.LVL0:
 117:main.c        ****     UART_Debug_Start();
  49              		.loc 1 117 0
  50 000a FFF7FEFF 		bl	UART_Debug_Start
  51              	.LVL1:
 118:main.c        **** 
 119:main.c        ****     CyDelay(5); //"The boot procedure is complete about 5 milliseconds after device power-up."
  52              		.loc 1 119 0
ARM GAS  C:\Users\LIUX\AppData\Local\Temp\ccf0MqdO.s 			page 4


  53 000e 0520     		movs	r0, #5
  54 0010 FFF7FEFF 		bl	CyDelay
  55              	.LVL2:
  56              	.LBB2:
 120:main.c        **** 
 121:main.c        ****     // String to print out messages on the UART
 122:main.c        ****     char message[50];
 123:main.c        **** 
 124:main.c        ****     // Check which devices are present on the I2C bus
 125:main.c        ****     for (int i = 0 ; i < 128; i++)
  57              		.loc 1 125 0
  58 0014 0024     		movs	r4, #0
  59 0016 0CE0     		b	.L2
  60              	.LVL3:
  61              	.L4:
 126:main.c        ****     {
 127:main.c        ****         if (I2C_Peripheral_IsDeviceConnected(i))
  62              		.loc 1 127 0
  63 0018 E0B2     		uxtb	r0, r4
  64 001a FFF7FEFF 		bl	I2C_Peripheral_IsDeviceConnected
  65              	.LVL4:
  66 001e 38B1     		cbz	r0, .L3
 128:main.c        ****         {
 129:main.c        ****             // print out the address is hex format
 130:main.c        ****             sprintf(message, "Device 0x%02X is connected\r\n", i);
  67              		.loc 1 130 0
  68 0020 2246     		mov	r2, r4
  69 0022 9E49     		ldr	r1, .L29
  70 0024 07A8     		add	r0, sp, #28
  71 0026 FFF7FEFF 		bl	sprintf
  72              	.LVL5:
 131:main.c        ****             UART_Debug_PutString(message);
  73              		.loc 1 131 0
  74 002a 07A8     		add	r0, sp, #28
  75 002c FFF7FEFF 		bl	UART_Debug_PutString
  76              	.LVL6:
  77              	.L3:
 125:main.c        ****     {
  78              		.loc 1 125 0 discriminator 2
  79 0030 0134     		adds	r4, r4, #1
  80              	.LVL7:
  81              	.L2:
 125:main.c        ****     {
  82              		.loc 1 125 0 is_stmt 0 discriminator 1
  83 0032 7F2C     		cmp	r4, #127
  84 0034 F0DD     		ble	.L4
  85              	.LBE2:
 132:main.c        ****         }
 133:main.c        **** 
 134:main.c        ****     }
 135:main.c        **** 
 136:main.c        ****     /**********************************************************************************************
 137:main.c        ****     /*                                                  I2C Reading                                
 138:main.c        ****     /**********************************************************************************************
 139:main.c        **** 
 140:main.c        ****     /* Read WHO AM I REGISTER register */
 141:main.c        ****     uint8_t who_am_i_reg;
ARM GAS  C:\Users\LIUX\AppData\Local\Temp\ccf0MqdO.s 			page 5


 142:main.c        ****     ErrorCode error = I2C_Peripheral_ReadRegister(LIS3DH_DEVICE_ADDRESS,
  86              		.loc 1 142 0 is_stmt 1
  87 0036 0DF11B02 		add	r2, sp, #27
  88 003a 0F21     		movs	r1, #15
  89 003c 1820     		movs	r0, #24
  90 003e FFF7FEFF 		bl	I2C_Peripheral_ReadRegister
  91              	.LVL8:
 143:main.c        ****                                                   LIS3DH_WHO_AM_I_REG_ADDR,
 144:main.c        ****                                                   &who_am_i_reg);
 145:main.c        ****     if (error == NO_ERROR)
  92              		.loc 1 145 0
  93 0042 48B9     		cbnz	r0, .L5
 146:main.c        ****     {
 147:main.c        ****         sprintf(message, "WHO AM I REG: 0x%02X [Expected: 0x33]\r\n", who_am_i_reg);
  94              		.loc 1 147 0
  95 0044 9DF81B20 		ldrb	r2, [sp, #27]	@ zero_extendqisi2
  96 0048 9549     		ldr	r1, .L29+4
  97 004a 07A8     		add	r0, sp, #28
  98              	.LVL9:
  99 004c FFF7FEFF 		bl	sprintf
 100              	.LVL10:
 148:main.c        ****         UART_Debug_PutString(message);
 101              		.loc 1 148 0
 102 0050 07A8     		add	r0, sp, #28
 103 0052 FFF7FEFF 		bl	UART_Debug_PutString
 104              	.LVL11:
 105 0056 02E0     		b	.L6
 106              	.LVL12:
 107              	.L5:
 149:main.c        ****     }
 150:main.c        ****     else
 151:main.c        ****     {
 152:main.c        ****         UART_Debug_PutString("Error occurred during I2C comm\r\n");
 108              		.loc 1 152 0
 109 0058 9248     		ldr	r0, .L29+8
 110              	.LVL13:
 111 005a FFF7FEFF 		bl	UART_Debug_PutString
 112              	.LVL14:
 113              	.L6:
 153:main.c        ****     }
 154:main.c        **** 
 155:main.c        ****     /**********************************************************************************************
 156:main.c        ****     /*                                         I2C Reading Status Register                         
 157:main.c        ****     /**********************************************************************************************
 158:main.c        **** 
 159:main.c        ****     uint8_t status_register;
 160:main.c        ****     error = I2C_Peripheral_ReadRegister(LIS3DH_DEVICE_ADDRESS,
 114              		.loc 1 160 0
 115 005e 0DF11A02 		add	r2, sp, #26
 116 0062 2721     		movs	r1, #39
 117 0064 1820     		movs	r0, #24
 118 0066 FFF7FEFF 		bl	I2C_Peripheral_ReadRegister
 119              	.LVL15:
 161:main.c        ****                                         LIS3DH_STATUS_REG,
 162:main.c        ****                                         &status_register);
 163:main.c        **** 
 164:main.c        ****     if (error == NO_ERROR)
ARM GAS  C:\Users\LIUX\AppData\Local\Temp\ccf0MqdO.s 			page 6


 120              		.loc 1 164 0
 121 006a 48B9     		cbnz	r0, .L7
 165:main.c        ****     {
 166:main.c        ****         sprintf(message, "STATUS REGISTER: 0x%02X\r\n", status_register);
 122              		.loc 1 166 0
 123 006c 9DF81A20 		ldrb	r2, [sp, #26]	@ zero_extendqisi2
 124 0070 8D49     		ldr	r1, .L29+12
 125 0072 07A8     		add	r0, sp, #28
 126              	.LVL16:
 127 0074 FFF7FEFF 		bl	sprintf
 128              	.LVL17:
 167:main.c        ****         UART_Debug_PutString(message);
 129              		.loc 1 167 0
 130 0078 07A8     		add	r0, sp, #28
 131 007a FFF7FEFF 		bl	UART_Debug_PutString
 132              	.LVL18:
 133 007e 02E0     		b	.L8
 134              	.LVL19:
 135              	.L7:
 168:main.c        ****     }
 169:main.c        ****     else
 170:main.c        ****     {
 171:main.c        ****         UART_Debug_PutString("Error occurred during I2C comm to read status register\r\n");
 136              		.loc 1 171 0
 137 0080 8A48     		ldr	r0, .L29+16
 138              	.LVL20:
 139 0082 FFF7FEFF 		bl	UART_Debug_PutString
 140              	.LVL21:
 141              	.L8:
 172:main.c        ****     }
 173:main.c        **** 
 174:main.c        ****     /**********************************************************************************************
 175:main.c        ****     /*                                            Read Control Register 1                          
 176:main.c        ****     /**********************************************************************************************
 177:main.c        **** 
 178:main.c        ****     uint8_t ctrl_reg1;
 179:main.c        ****     error = I2C_Peripheral_ReadRegister(LIS3DH_DEVICE_ADDRESS,
 142              		.loc 1 179 0
 143 0086 0DF11902 		add	r2, sp, #25
 144 008a 2021     		movs	r1, #32
 145 008c 1820     		movs	r0, #24
 146 008e FFF7FEFF 		bl	I2C_Peripheral_ReadRegister
 147              	.LVL22:
 180:main.c        ****                                         LIS3DH_CTRL_REG1,
 181:main.c        ****                                         &ctrl_reg1);
 182:main.c        **** 
 183:main.c        ****     if (error == NO_ERROR)
 148              		.loc 1 183 0
 149 0092 48B9     		cbnz	r0, .L9
 184:main.c        ****     {
 185:main.c        ****         sprintf(message, "CONTROL REGISTER 1: 0x%02X\r\n", ctrl_reg1);
 150              		.loc 1 185 0
 151 0094 9DF81920 		ldrb	r2, [sp, #25]	@ zero_extendqisi2
 152 0098 8549     		ldr	r1, .L29+20
 153 009a 07A8     		add	r0, sp, #28
 154              	.LVL23:
 155 009c FFF7FEFF 		bl	sprintf
ARM GAS  C:\Users\LIUX\AppData\Local\Temp\ccf0MqdO.s 			page 7


 156              	.LVL24:
 186:main.c        ****         UART_Debug_PutString(message);
 157              		.loc 1 186 0
 158 00a0 07A8     		add	r0, sp, #28
 159 00a2 FFF7FEFF 		bl	UART_Debug_PutString
 160              	.LVL25:
 161 00a6 02E0     		b	.L10
 162              	.LVL26:
 163              	.L9:
 187:main.c        ****     }
 188:main.c        ****     else
 189:main.c        ****     {
 190:main.c        ****         UART_Debug_PutString("Error occurred during I2C comm to read control register 1\r\n");
 164              		.loc 1 190 0
 165 00a8 8248     		ldr	r0, .L29+24
 166              	.LVL27:
 167 00aa FFF7FEFF 		bl	UART_Debug_PutString
 168              	.LVL28:
 169              	.L10:
 191:main.c        ****     }
 192:main.c        **** 
 193:main.c        ****     /**********************************************************************************************
 194:main.c        ****     /*                                                 I2C Writing                                 
 195:main.c        ****     /**********************************************************************************************
 196:main.c        **** 
 197:main.c        ****     UART_Debug_PutString("\r\nWriting new values..\r\n");
 170              		.loc 1 197 0
 171 00ae 8248     		ldr	r0, .L29+28
 172 00b0 FFF7FEFF 		bl	UART_Debug_PutString
 173              	.LVL29:
 198:main.c        **** 
 199:main.c        ****     if (ctrl_reg1 != LIS3DH_NORMAL_MODE_CTRL_REG1)
 174              		.loc 1 199 0
 175 00b4 9DF81930 		ldrb	r3, [sp, #25]	@ zero_extendqisi2
 176 00b8 572B     		cmp	r3, #87
 177 00ba 14D0     		beq	.L11
 200:main.c        ****     {
 201:main.c        ****         ctrl_reg1 = LIS3DH_NORMAL_MODE_CTRL_REG1;
 178              		.loc 1 201 0
 179 00bc 5722     		movs	r2, #87
 180 00be 8DF81920 		strb	r2, [sp, #25]
 202:main.c        **** 
 203:main.c        ****         error = I2C_Peripheral_WriteRegister(LIS3DH_DEVICE_ADDRESS,
 181              		.loc 1 203 0
 182 00c2 2021     		movs	r1, #32
 183 00c4 1820     		movs	r0, #24
 184 00c6 FFF7FEFF 		bl	I2C_Peripheral_WriteRegister
 185              	.LVL30:
 204:main.c        ****                                              LIS3DH_CTRL_REG1,
 205:main.c        ****                                              ctrl_reg1);
 206:main.c        **** 
 207:main.c        ****         if (error == NO_ERROR)
 186              		.loc 1 207 0
 187 00ca 48B9     		cbnz	r0, .L12
 208:main.c        ****         {
 209:main.c        ****             sprintf(message, "CONTROL REGISTER 1 successfully written as: 0x%02X\r\n", ctrl_reg1);
 188              		.loc 1 209 0
ARM GAS  C:\Users\LIUX\AppData\Local\Temp\ccf0MqdO.s 			page 8


 189 00cc 9DF81920 		ldrb	r2, [sp, #25]	@ zero_extendqisi2
 190 00d0 7A49     		ldr	r1, .L29+32
 191 00d2 07A8     		add	r0, sp, #28
 192              	.LVL31:
 193 00d4 FFF7FEFF 		bl	sprintf
 194              	.LVL32:
 210:main.c        ****             UART_Debug_PutString(message);
 195              		.loc 1 210 0
 196 00d8 07A8     		add	r0, sp, #28
 197 00da FFF7FEFF 		bl	UART_Debug_PutString
 198              	.LVL33:
 199 00de 02E0     		b	.L11
 200              	.LVL34:
 201              	.L12:
 211:main.c        ****         }
 212:main.c        ****         else
 213:main.c        ****         {
 214:main.c        ****             UART_Debug_PutString("Error occurred during I2C comm to set control register 1\r\n");
 202              		.loc 1 214 0
 203 00e0 7748     		ldr	r0, .L29+36
 204              	.LVL35:
 205 00e2 FFF7FEFF 		bl	UART_Debug_PutString
 206              	.LVL36:
 207              	.L11:
 215:main.c        ****         }
 216:main.c        ****     }
 217:main.c        **** 
 218:main.c        ****     /**********************************************************************************************
 219:main.c        ****     /*                                               FIFO mode disabled                            
 220:main.c        ****     /**********************************************************************************************
 221:main.c        **** 
 222:main.c        ****     /* Previously it seemed as if the data were stuck, maybe because FIFO mode has been enabled in 
 223:main.c        ****     *  this mode could be usefull for achiving the following request:
 224:main.c        ****     *  "Carefully think about the possible options to read data at a constant rate."
 225:main.c        ****     */
 226:main.c        **** 
 227:main.c        ****     UART_Debug_PutString("\r\nWriting new values..\r\n");
 208              		.loc 1 227 0
 209 00e6 7448     		ldr	r0, .L29+28
 210 00e8 FFF7FEFF 		bl	UART_Debug_PutString
 211              	.LVL37:
 228:main.c        **** 
 229:main.c        ****     error = I2C_Peripheral_WriteRegister(LIS3DH_DEVICE_ADDRESS,
 212              		.loc 1 229 0
 213 00ec 0022     		movs	r2, #0
 214 00ee 2421     		movs	r1, #36
 215 00f0 1820     		movs	r0, #24
 216 00f2 FFF7FEFF 		bl	I2C_Peripheral_WriteRegister
 217              	.LVL38:
 230:main.c        ****                                          LIS3DH_CTRL_REG5,
 231:main.c        ****                                          LIS3DH_CTRL_REG5_FIFO_DISABLE);
 232:main.c        **** 
 233:main.c        ****     error = I2C_Peripheral_WriteRegister(LIS3DH_DEVICE_ADDRESS,
 218              		.loc 1 233 0
 219 00f6 0022     		movs	r2, #0
 220 00f8 2E21     		movs	r1, #46
 221 00fa 1820     		movs	r0, #24
ARM GAS  C:\Users\LIUX\AppData\Local\Temp\ccf0MqdO.s 			page 9


 222 00fc FFF7FEFF 		bl	I2C_Peripheral_WriteRegister
 223              	.LVL39:
 234:main.c        ****                                          LIS3DH_FIFO_CTRL_REG,
 235:main.c        ****                                          LIS3DH_FIFO_DISABLE);
 236:main.c        **** 
 237:main.c        ****     if (error == NO_ERROR)
 224              		.loc 1 237 0
 225 0100 60B9     		cbnz	r0, .L13
 238:main.c        ****     {
 239:main.c        ****         sprintf(message, "FIFO mode disabled");
 226              		.loc 1 239 0
 227 0102 07AC     		add	r4, sp, #28
 228              	.LVL40:
 229 0104 6F4D     		ldr	r5, .L29+40
 230 0106 0FCD     		ldmia	r5!, {r0, r1, r2, r3}
 231              	.LVL41:
 232 0108 0FC4     		stmia	r4!, {r0, r1, r2, r3}
 233 010a 2B68     		ldr	r3, [r5]
 234 010c 24F8023B 		strh	r3, [r4], #2	@ movhi
 235 0110 1B0C     		lsrs	r3, r3, #16
 236 0112 2370     		strb	r3, [r4]
 240:main.c        ****         UART_Debug_PutString(message);
 237              		.loc 1 240 0
 238 0114 07A8     		add	r0, sp, #28
 239 0116 FFF7FEFF 		bl	UART_Debug_PutString
 240              	.LVL42:
 241 011a 02E0     		b	.L14
 242              	.LVL43:
 243              	.L13:
 241:main.c        ****     }
 242:main.c        ****     else
 243:main.c        ****     {
 244:main.c        ****         UART_Debug_PutString("Error occurred writing FIFO mode");
 244              		.loc 1 244 0
 245 011c 6A48     		ldr	r0, .L29+44
 246              	.LVL44:
 247 011e FFF7FEFF 		bl	UART_Debug_PutString
 248              	.LVL45:
 249              	.L14:
 245:main.c        ****     }
 246:main.c        **** 
 247:main.c        ****     /**********************************************************************************************
 248:main.c        ****     /*                                         Read Control Register 1 again                       
 249:main.c        ****     /**********************************************************************************************
 250:main.c        **** 
 251:main.c        ****     error = I2C_Peripheral_ReadRegister(LIS3DH_DEVICE_ADDRESS,
 250              		.loc 1 251 0
 251 0122 0DF11902 		add	r2, sp, #25
 252 0126 2021     		movs	r1, #32
 253 0128 1820     		movs	r0, #24
 254 012a FFF7FEFF 		bl	I2C_Peripheral_ReadRegister
 255              	.LVL46:
 252:main.c        ****                                         LIS3DH_CTRL_REG1,
 253:main.c        ****                                         &ctrl_reg1);
 254:main.c        **** 
 255:main.c        ****     if (error == NO_ERROR)
 256              		.loc 1 255 0
ARM GAS  C:\Users\LIUX\AppData\Local\Temp\ccf0MqdO.s 			page 10


 257 012e 48B9     		cbnz	r0, .L15
 256:main.c        ****     {
 257:main.c        ****         sprintf(message, "CONTROL REGISTER 1 after overwrite operation: 0x%02X\r\n", ctrl_reg1);
 258              		.loc 1 257 0
 259 0130 9DF81920 		ldrb	r2, [sp, #25]	@ zero_extendqisi2
 260 0134 6549     		ldr	r1, .L29+48
 261 0136 07A8     		add	r0, sp, #28
 262              	.LVL47:
 263 0138 FFF7FEFF 		bl	sprintf
 264              	.LVL48:
 258:main.c        ****         UART_Debug_PutString(message);
 265              		.loc 1 258 0
 266 013c 07A8     		add	r0, sp, #28
 267 013e FFF7FEFF 		bl	UART_Debug_PutString
 268              	.LVL49:
 269 0142 02E0     		b	.L16
 270              	.LVL50:
 271              	.L15:
 259:main.c        ****     }
 260:main.c        ****     else
 261:main.c        ****     {
 262:main.c        ****         UART_Debug_PutString("Error occurred during I2C comm to read control register 1\r\n");
 272              		.loc 1 262 0
 273 0144 5B48     		ldr	r0, .L29+24
 274              	.LVL51:
 275 0146 FFF7FEFF 		bl	UART_Debug_PutString
 276              	.LVL52:
 277              	.L16:
 263:main.c        ****     }
 264:main.c        **** 
 265:main.c        ****     /**********************************************************************************************
 266:main.c        ****     /*                                   I2C Reading Temperature sensor CFG reg                    
 267:main.c        ****     /**********************************************************************************************
 268:main.c        **** 
 269:main.c        ****     uint8_t tmp_cfg_reg;
 270:main.c        **** 
 271:main.c        ****     error = I2C_Peripheral_ReadRegister(LIS3DH_DEVICE_ADDRESS,
 278              		.loc 1 271 0
 279 014a 06AA     		add	r2, sp, #24
 280 014c 1F21     		movs	r1, #31
 281 014e 1820     		movs	r0, #24
 282 0150 FFF7FEFF 		bl	I2C_Peripheral_ReadRegister
 283              	.LVL53:
 272:main.c        ****                                         LIS3DH_TEMP_CFG_REG,
 273:main.c        ****                                         &tmp_cfg_reg);
 274:main.c        **** 
 275:main.c        ****     if (error == NO_ERROR)
 284              		.loc 1 275 0
 285 0154 48B9     		cbnz	r0, .L17
 276:main.c        ****     {
 277:main.c        ****         sprintf(message, "TEMPERATURE CONFIG REGISTER: 0x%02X\r\n", tmp_cfg_reg);
 286              		.loc 1 277 0
 287 0156 9DF81820 		ldrb	r2, [sp, #24]	@ zero_extendqisi2
 288 015a 5D49     		ldr	r1, .L29+52
 289 015c 07A8     		add	r0, sp, #28
 290              	.LVL54:
 291 015e FFF7FEFF 		bl	sprintf
ARM GAS  C:\Users\LIUX\AppData\Local\Temp\ccf0MqdO.s 			page 11


 292              	.LVL55:
 278:main.c        ****         UART_Debug_PutString(message);
 293              		.loc 1 278 0
 294 0162 07A8     		add	r0, sp, #28
 295 0164 FFF7FEFF 		bl	UART_Debug_PutString
 296              	.LVL56:
 297 0168 02E0     		b	.L18
 298              	.LVL57:
 299              	.L17:
 279:main.c        ****     }
 280:main.c        ****     else
 281:main.c        ****     {
 282:main.c        ****         UART_Debug_PutString("Error occurred during I2C comm to read temperature config register\r\
 300              		.loc 1 282 0
 301 016a 5A48     		ldr	r0, .L29+56
 302              	.LVL58:
 303 016c FFF7FEFF 		bl	UART_Debug_PutString
 304              	.LVL59:
 305              	.L18:
 283:main.c        ****     }
 284:main.c        **** 
 285:main.c        **** 
 286:main.c        ****     tmp_cfg_reg = LIS3DH_TEMP_CFG_REG_ACTIVE; // must be changed to the appropriate value
 306              		.loc 1 286 0
 307 0170 C022     		movs	r2, #192
 308 0172 14AC     		add	r4, sp, #80
 309 0174 04F8382D 		strb	r2, [r4, #-56]!
 287:main.c        **** 
 288:main.c        ****     error = I2C_Peripheral_WriteRegister(LIS3DH_DEVICE_ADDRESS,
 310              		.loc 1 288 0
 311 0178 1F21     		movs	r1, #31
 312 017a 1820     		movs	r0, #24
 313 017c FFF7FEFF 		bl	I2C_Peripheral_WriteRegister
 314              	.LVL60:
 289:main.c        ****                                          LIS3DH_TEMP_CFG_REG,
 290:main.c        ****                                          tmp_cfg_reg);
 291:main.c        **** 
 292:main.c        ****     error = I2C_Peripheral_ReadRegister(LIS3DH_DEVICE_ADDRESS,
 315              		.loc 1 292 0
 316 0180 2246     		mov	r2, r4
 317 0182 1F21     		movs	r1, #31
 318 0184 1820     		movs	r0, #24
 319 0186 FFF7FEFF 		bl	I2C_Peripheral_ReadRegister
 320              	.LVL61:
 293:main.c        ****                                         LIS3DH_TEMP_CFG_REG,
 294:main.c        ****                                         &tmp_cfg_reg);
 295:main.c        **** 
 296:main.c        **** 
 297:main.c        ****     if (error == NO_ERROR)
 321              		.loc 1 297 0
 322 018a 48B9     		cbnz	r0, .L19
 298:main.c        ****     {
 299:main.c        ****         sprintf(message, "TEMPERATURE CONFIG REGISTER after being updated: 0x%02X\r\n", tmp_cfg_reg
 323              		.loc 1 299 0
 324 018c 9DF81820 		ldrb	r2, [sp, #24]	@ zero_extendqisi2
 325 0190 5149     		ldr	r1, .L29+60
 326 0192 07A8     		add	r0, sp, #28
ARM GAS  C:\Users\LIUX\AppData\Local\Temp\ccf0MqdO.s 			page 12


 327              	.LVL62:
 328 0194 FFF7FEFF 		bl	sprintf
 329              	.LVL63:
 300:main.c        ****         UART_Debug_PutString(message);
 330              		.loc 1 300 0
 331 0198 07A8     		add	r0, sp, #28
 332 019a FFF7FEFF 		bl	UART_Debug_PutString
 333              	.LVL64:
 334 019e 02E0     		b	.L20
 335              	.LVL65:
 336              	.L19:
 301:main.c        ****     }
 302:main.c        ****     else
 303:main.c        ****     {
 304:main.c        ****         UART_Debug_PutString("Error occurred during I2C comm to read temperature config register\r\
 337              		.loc 1 304 0
 338 01a0 4C48     		ldr	r0, .L29+56
 339              	.LVL66:
 340 01a2 FFF7FEFF 		bl	UART_Debug_PutString
 341              	.LVL67:
 342              	.L20:
 305:main.c        ****     }
 306:main.c        **** 
 307:main.c        ****     uint8_t ctrl_reg4;
 308:main.c        **** 
 309:main.c        ****     error = I2C_Peripheral_ReadRegister(LIS3DH_DEVICE_ADDRESS,
 343              		.loc 1 309 0
 344 01a6 0DF11702 		add	r2, sp, #23
 345 01aa 2321     		movs	r1, #35
 346 01ac 1820     		movs	r0, #24
 347 01ae FFF7FEFF 		bl	I2C_Peripheral_ReadRegister
 348              	.LVL68:
 310:main.c        ****                                         LIS3DH_CTRL_REG4,
 311:main.c        ****                                         &ctrl_reg4);
 312:main.c        **** 
 313:main.c        ****     if (error == NO_ERROR)
 349              		.loc 1 313 0
 350 01b2 48B9     		cbnz	r0, .L21
 314:main.c        ****     {
 315:main.c        ****         sprintf(message, "CONTROL REGISTER 4: 0x%02X\r\n", ctrl_reg4);
 351              		.loc 1 315 0
 352 01b4 9DF81720 		ldrb	r2, [sp, #23]	@ zero_extendqisi2
 353 01b8 4849     		ldr	r1, .L29+64
 354 01ba 07A8     		add	r0, sp, #28
 355              	.LVL69:
 356 01bc FFF7FEFF 		bl	sprintf
 357              	.LVL70:
 316:main.c        ****         UART_Debug_PutString(message);
 358              		.loc 1 316 0
 359 01c0 07A8     		add	r0, sp, #28
 360 01c2 FFF7FEFF 		bl	UART_Debug_PutString
 361              	.LVL71:
 362 01c6 02E0     		b	.L22
 363              	.LVL72:
 364              	.L21:
 317:main.c        ****     }
 318:main.c        ****     else
ARM GAS  C:\Users\LIUX\AppData\Local\Temp\ccf0MqdO.s 			page 13


 319:main.c        ****     {
 320:main.c        ****         UART_Debug_PutString("Error occurred during I2C comm to read control register4\r\n");
 365              		.loc 1 320 0
 366 01c8 4548     		ldr	r0, .L29+68
 367              	.LVL73:
 368 01ca FFF7FEFF 		bl	UART_Debug_PutString
 369              	.LVL74:
 370              	.L22:
 321:main.c        ****     }
 322:main.c        **** 
 323:main.c        **** 
 324:main.c        ****     ctrl_reg4 = LIS3DH_CTRL_REG4_BDU_ACTIVE; // must be changed to the appropriate value
 371              		.loc 1 324 0
 372 01ce 8022     		movs	r2, #128
 373 01d0 14AC     		add	r4, sp, #80
 374 01d2 04F8392D 		strb	r2, [r4, #-57]!
 325:main.c        **** 
 326:main.c        ****     error = I2C_Peripheral_WriteRegister(LIS3DH_DEVICE_ADDRESS,
 375              		.loc 1 326 0
 376 01d6 2321     		movs	r1, #35
 377 01d8 1820     		movs	r0, #24
 378 01da FFF7FEFF 		bl	I2C_Peripheral_WriteRegister
 379              	.LVL75:
 327:main.c        ****                                          LIS3DH_CTRL_REG4,
 328:main.c        ****                                          ctrl_reg4);
 329:main.c        **** 
 330:main.c        ****     error = I2C_Peripheral_ReadRegister(LIS3DH_DEVICE_ADDRESS,
 380              		.loc 1 330 0
 381 01de 2246     		mov	r2, r4
 382 01e0 2321     		movs	r1, #35
 383 01e2 1820     		movs	r0, #24
 384 01e4 FFF7FEFF 		bl	I2C_Peripheral_ReadRegister
 385              	.LVL76:
 331:main.c        ****                                         LIS3DH_CTRL_REG4,
 332:main.c        ****                                         &ctrl_reg4);
 333:main.c        **** 
 334:main.c        **** 
 335:main.c        ****     if (error == NO_ERROR)
 386              		.loc 1 335 0
 387 01e8 48B9     		cbnz	r0, .L23
 336:main.c        ****     {
 337:main.c        ****         sprintf(message, "CONTROL REGISTER 4 after being updated: 0x%02X\r\n", ctrl_reg4);
 388              		.loc 1 337 0
 389 01ea 9DF81720 		ldrb	r2, [sp, #23]	@ zero_extendqisi2
 390 01ee 3D49     		ldr	r1, .L29+72
 391 01f0 07A8     		add	r0, sp, #28
 392              	.LVL77:
 393 01f2 FFF7FEFF 		bl	sprintf
 394              	.LVL78:
 338:main.c        ****         UART_Debug_PutString(message);
 395              		.loc 1 338 0
 396 01f6 07A8     		add	r0, sp, #28
 397 01f8 FFF7FEFF 		bl	UART_Debug_PutString
 398              	.LVL79:
 399 01fc 02E0     		b	.L24
 400              	.LVL80:
 401              	.L23:
ARM GAS  C:\Users\LIUX\AppData\Local\Temp\ccf0MqdO.s 			page 14


 339:main.c        ****     }
 340:main.c        ****     else
 341:main.c        ****     {
 342:main.c        ****         UART_Debug_PutString("Error occurred during I2C comm to read control register4\r\n");
 402              		.loc 1 342 0
 403 01fe 3848     		ldr	r0, .L29+68
 404              	.LVL81:
 405 0200 FFF7FEFF 		bl	UART_Debug_PutString
 406              	.LVL82:
 407              	.L24:
 343:main.c        ****     }
 344:main.c        **** 
 345:main.c        **** 
 346:main.c        ****     /**********************************************************************************************
 347:main.c        ****     /*                                             VARIABLE SETTINGS                               
 348:main.c        ****     /**********************************************************************************************
 349:main.c        ****     
 350:main.c        ****     uint16_t xAcc;
 351:main.c        ****     uint16_t yAcc;
 352:main.c        ****     uint16_t zAcc;
 353:main.c        **** 
 354:main.c        ****     uint8_t header = 0xA0;
 355:main.c        ****     uint8_t tail = 0xC0;
 356:main.c        **** 
 357:main.c        ****     uint8_t check;
 358:main.c        ****     uint8_t status; // status of the status register
 359:main.c        **** 
 360:main.c        ****     uint8_t OutArray[8]; 
 361:main.c        ****     OutArray[0] = header;
 408              		.loc 1 361 0
 409 0204 A023     		movs	r3, #160
 410 0206 8DF80C30 		strb	r3, [sp, #12]
 362:main.c        ****     uint8_t AccData[6]; 
 363:main.c        ****     OutArray[7] = tail;
 411              		.loc 1 363 0
 412 020a C023     		movs	r3, #192
 413 020c 8DF81330 		strb	r3, [sp, #19]
 414              	.L26:
 364:main.c        **** 
 365:main.c        ****     /**********************************************************************************************
 366:main.c        ****     /*                                                    CYCLE                                    
 367:main.c        ****     /**********************************************************************************************
 368:main.c        ****     
 369:main.c        ****     for(;;)
 370:main.c        ****     {
 371:main.c        ****         CyDelay(10);
 415              		.loc 1 371 0
 416 0210 0A20     		movs	r0, #10
 417 0212 FFF7FEFF 		bl	CyDelay
 418              	.LVL83:
 372:main.c        **** 
 373:main.c        ****         // gathering the LIS3DH_STATUS_REG value
 374:main.c        ****         error = I2C_Peripheral_ReadRegister(LIS3DH_DEVICE_ADDRESS,
 419              		.loc 1 374 0
 420 0216 0DF11602 		add	r2, sp, #22
 421 021a 2721     		movs	r1, #39
 422 021c 1820     		movs	r0, #24
ARM GAS  C:\Users\LIUX\AppData\Local\Temp\ccf0MqdO.s 			page 15


 423 021e FFF7FEFF 		bl	I2C_Peripheral_ReadRegister
 424              	.LVL84:
 375:main.c        ****                                             LIS3DH_STATUS_REG,
 376:main.c        ****                                             &status);
 377:main.c        **** 
 378:main.c        ****         // Check on ZYXDA cell of status register
 379:main.c        ****         check = status & LIS3DH_STATUS_REG_ZYXDA;
 425              		.loc 1 379 0
 426 0222 9DF81630 		ldrb	r3, [sp, #22]	@ zero_extendqisi2
 427              	.LVL85:
 380:main.c        **** 
 381:main.c        ****         // if new data are available
 382:main.c        ****         if(check == LIS3DH_STATUS_REG_ZYXDA){
 428              		.loc 1 382 0
 429 0226 13F0080F 		tst	r3, #8
 430 022a 05D0     		beq	.L25
 383:main.c        **** 
 384:main.c        ****         // gathering only x Acc
 385:main.c        ****         error = I2C_Peripheral_ReadRegisterMulti(LIS3DH_DEVICE_ADDRESS, // device_address
 431              		.loc 1 385 0
 432 022c 01AB     		add	r3, sp, #4
 433              	.LVL86:
 434 022e 0622     		movs	r2, #6
 435 0230 2821     		movs	r1, #40
 436 0232 1820     		movs	r0, #24
 437              	.LVL87:
 438 0234 FFF7FEFF 		bl	I2C_Peripheral_ReadRegisterMulti
 439              	.LVL88:
 440              	.L25:
 386:main.c        ****                                                  LIS3DH_OUT_X_L,        // register_address LIS3DH_
 387:main.c        ****                                                  6,                     // register_count 6
 388:main.c        ****                                                  &AccData[0]);          // data pointer
 389:main.c        **** 
 390:main.c        ****         }
 391:main.c        **** 
 392:main.c        ****         if(error == NO_ERROR)
 441              		.loc 1 392 0
 442 0238 0028     		cmp	r0, #0
 443 023a E9D1     		bne	.L26
 393:main.c        ****         {
 394:main.c        **** 
 395:main.c        ****             /*
 396:main.c        ****             Convert the 3 axial outputs of the Accelerometer to 3
 397:main.c        ****             right-justified 16-bit integers with the correct
 398:main.c        ****             scaling (i.e. in mg).
 399:main.c        ****             */
 400:main.c        **** 
 401:main.c        ****             xAcc = (int16_t)(((AccData[0] | AccData[1]<<8 )))>>6;
 444              		.loc 1 401 0
 445 023c 9DF80430 		ldrb	r3, [sp, #4]	@ zero_extendqisi2
 446 0240 9DF80520 		ldrb	r2, [sp, #5]	@ zero_extendqisi2
 447 0244 43EA0223 		orr	r3, r3, r2, lsl #8
 448 0248 43F38913 		sbfx	r3, r3, #6, #10
 449              	.LVL89:
 402:main.c        ****             OutArray[1] = (uint8_t)(xAcc >> 8);         // LSB
 450              		.loc 1 402 0
 451 024c C3F30722 		ubfx	r2, r3, #8, #8
ARM GAS  C:\Users\LIUX\AppData\Local\Temp\ccf0MqdO.s 			page 16


 452 0250 8DF80D20 		strb	r2, [sp, #13]
 403:main.c        ****             OutArray[2] = (uint8_t)(xAcc & 0xFF);       // MSB
 453              		.loc 1 403 0
 454 0254 8DF80E30 		strb	r3, [sp, #14]
 404:main.c        **** 
 405:main.c        ****             yAcc = (int16_t)(((AccData[2] | AccData[3]<<8)))>>6;
 455              		.loc 1 405 0
 456 0258 9DF80630 		ldrb	r3, [sp, #6]	@ zero_extendqisi2
 457              	.LVL90:
 458 025c 9DF80720 		ldrb	r2, [sp, #7]	@ zero_extendqisi2
 459 0260 43EA0223 		orr	r3, r3, r2, lsl #8
 460 0264 43F38913 		sbfx	r3, r3, #6, #10
 461              	.LVL91:
 406:main.c        ****             OutArray[3] = (uint8_t)(yAcc >> 8);         // LSB
 462              		.loc 1 406 0
 463 0268 C3F30722 		ubfx	r2, r3, #8, #8
 464 026c 8DF80F20 		strb	r2, [sp, #15]
 407:main.c        ****             OutArray[4] = (uint8_t)(yAcc & 0xFF);       // MSB
 465              		.loc 1 407 0
 466 0270 8DF81030 		strb	r3, [sp, #16]
 408:main.c        **** 
 409:main.c        ****             zAcc = (int16_t)(((AccData[4] | AccData[5]<<8)))>>6;
 467              		.loc 1 409 0
 468 0274 9DF80830 		ldrb	r3, [sp, #8]	@ zero_extendqisi2
 469              	.LVL92:
 470 0278 9DF80920 		ldrb	r2, [sp, #9]	@ zero_extendqisi2
 471 027c 43EA0223 		orr	r3, r3, r2, lsl #8
 472 0280 43F38913 		sbfx	r3, r3, #6, #10
 473              	.LVL93:
 410:main.c        ****             OutArray[5] = (uint8_t)(zAcc >> 8);         // LSB
 474              		.loc 1 410 0
 475 0284 C3F30722 		ubfx	r2, r3, #8, #8
 476 0288 8DF81120 		strb	r2, [sp, #17]
 411:main.c        ****             OutArray[6] = (uint8_t)(zAcc & 0xFF);       // MSB
 477              		.loc 1 411 0
 478 028c 8DF81230 		strb	r3, [sp, #18]
 412:main.c        **** 
 413:main.c        ****             UART_Debug_PutArray(OutArray, 8);
 479              		.loc 1 413 0
 480 0290 0821     		movs	r1, #8
 481 0292 03A8     		add	r0, sp, #12
 482              	.LVL94:
 483 0294 FFF7FEFF 		bl	UART_Debug_PutArray
 484              	.LVL95:
 485 0298 BAE7     		b	.L26
 486              	.L30:
 487 029a 00BF     		.align	2
 488              	.L29:
 489 029c 00000000 		.word	.LC0
 490 02a0 20000000 		.word	.LC1
 491 02a4 48000000 		.word	.LC2
 492 02a8 6C000000 		.word	.LC3
 493 02ac 88000000 		.word	.LC4
 494 02b0 C4000000 		.word	.LC5
 495 02b4 E4000000 		.word	.LC6
 496 02b8 20010000 		.word	.LC7
 497 02bc 3C010000 		.word	.LC8
ARM GAS  C:\Users\LIUX\AppData\Local\Temp\ccf0MqdO.s 			page 17


 498 02c0 74010000 		.word	.LC9
 499 02c4 B0010000 		.word	.LC10
 500 02c8 C4010000 		.word	.LC11
 501 02cc E8010000 		.word	.LC12
 502 02d0 20020000 		.word	.LC13
 503 02d4 48020000 		.word	.LC14
 504 02d8 90020000 		.word	.LC15
 505 02dc CC020000 		.word	.LC16
 506 02e0 EC020000 		.word	.LC17
 507 02e4 28030000 		.word	.LC18
 508              		.cfi_endproc
 509              	.LFE64:
 510              		.size	main, .-main
 511              		.section	.rodata.str1.4,"aMS",%progbits,1
 512              		.align	2
 513              	.LC0:
 514 0000 44657669 		.ascii	"Device 0x%02X is connected\015\012\000"
 514      63652030 
 514      78253032 
 514      58206973 
 514      20636F6E 
 515 001d 000000   		.space	3
 516              	.LC1:
 517 0020 57484F20 		.ascii	"WHO AM I REG: 0x%02X [Expected: 0x33]\015\012\000"
 517      414D2049 
 517      20524547 
 517      3A203078 
 517      25303258 
 518              	.LC2:
 519 0048 4572726F 		.ascii	"Error occurred during I2C comm\015\012\000"
 519      72206F63 
 519      63757272 
 519      65642064 
 519      7572696E 
 520 0069 000000   		.space	3
 521              	.LC3:
 522 006c 53544154 		.ascii	"STATUS REGISTER: 0x%02X\015\012\000"
 522      55532052 
 522      45474953 
 522      5445523A 
 522      20307825 
 523 0086 0000     		.space	2
 524              	.LC4:
 525 0088 4572726F 		.ascii	"Error occurred during I2C comm to read status regis"
 525      72206F63 
 525      63757272 
 525      65642064 
 525      7572696E 
 526 00bb 7465720D 		.ascii	"ter\015\012\000"
 526      0A00
 527 00c1 000000   		.space	3
 528              	.LC5:
 529 00c4 434F4E54 		.ascii	"CONTROL REGISTER 1: 0x%02X\015\012\000"
 529      524F4C20 
 529      52454749 
 529      53544552 
 529      20313A20 
ARM GAS  C:\Users\LIUX\AppData\Local\Temp\ccf0MqdO.s 			page 18


 530 00e1 000000   		.space	3
 531              	.LC6:
 532 00e4 4572726F 		.ascii	"Error occurred during I2C comm to read control regi"
 532      72206F63 
 532      63757272 
 532      65642064 
 532      7572696E 
 533 0117 73746572 		.ascii	"ster 1\015\012\000"
 533      20310D0A 
 533      00
 534              	.LC7:
 535 0120 0D0A5772 		.ascii	"\015\012Writing new values..\015\012\000"
 535      6974696E 
 535      67206E65 
 535      77207661 
 535      6C756573 
 536 0139 000000   		.space	3
 537              	.LC8:
 538 013c 434F4E54 		.ascii	"CONTROL REGISTER 1 successfully written as: 0x%02X\015"
 538      524F4C20 
 538      52454749 
 538      53544552 
 538      20312073 
 539 016f 0A00     		.ascii	"\012\000"
 540 0171 000000   		.space	3
 541              	.LC9:
 542 0174 4572726F 		.ascii	"Error occurred during I2C comm to set control regis"
 542      72206F63 
 542      63757272 
 542      65642064 
 542      7572696E 
 543 01a7 74657220 		.ascii	"ter 1\015\012\000"
 543      310D0A00 
 544 01af 00       		.space	1
 545              	.LC10:
 546 01b0 4649464F 		.ascii	"FIFO mode disabled\000"
 546      206D6F64 
 546      65206469 
 546      7361626C 
 546      656400
 547 01c3 00       		.space	1
 548              	.LC11:
 549 01c4 4572726F 		.ascii	"Error occurred writing FIFO mode\000"
 549      72206F63 
 549      63757272 
 549      65642077 
 549      72697469 
 550 01e5 000000   		.space	3
 551              	.LC12:
 552 01e8 434F4E54 		.ascii	"CONTROL REGISTER 1 after overwrite operation: 0x%02"
 552      524F4C20 
 552      52454749 
 552      53544552 
 552      20312061 
 553 021b 580D0A00 		.ascii	"X\015\012\000"
 554 021f 00       		.space	1
 555              	.LC13:
ARM GAS  C:\Users\LIUX\AppData\Local\Temp\ccf0MqdO.s 			page 19


 556 0220 54454D50 		.ascii	"TEMPERATURE CONFIG REGISTER: 0x%02X\015\012\000"
 556      45524154 
 556      55524520 
 556      434F4E46 
 556      49472052 
 557 0246 0000     		.space	2
 558              	.LC14:
 559 0248 4572726F 		.ascii	"Error occurred during I2C comm to read temperature "
 559      72206F63 
 559      63757272 
 559      65642064 
 559      7572696E 
 560 027b 636F6E66 		.ascii	"config register\015\012\000"
 560      69672072 
 560      65676973 
 560      7465720D 
 560      0A00
 561 028d 000000   		.space	3
 562              	.LC15:
 563 0290 54454D50 		.ascii	"TEMPERATURE CONFIG REGISTER after being updated: 0x"
 563      45524154 
 563      55524520 
 563      434F4E46 
 563      49472052 
 564 02c3 25303258 		.ascii	"%02X\015\012\000"
 564      0D0A00
 565 02ca 0000     		.space	2
 566              	.LC16:
 567 02cc 434F4E54 		.ascii	"CONTROL REGISTER 4: 0x%02X\015\012\000"
 567      524F4C20 
 567      52454749 
 567      53544552 
 567      20343A20 
 568 02e9 000000   		.space	3
 569              	.LC17:
 570 02ec 4572726F 		.ascii	"Error occurred during I2C comm to read control regi"
 570      72206F63 
 570      63757272 
 570      65642064 
 570      7572696E 
 571 031f 73746572 		.ascii	"ster4\015\012\000"
 571      340D0A00 
 572 0327 00       		.space	1
 573              	.LC18:
 574 0328 434F4E54 		.ascii	"CONTROL REGISTER 4 after being updated: 0x%02X\015\012"
 574      524F4C20 
 574      52454749 
 574      53544552 
 574      20342061 
 575 0358 00       		.ascii	"\000"
 576              		.text
 577              	.Letext0:
 578              		.file 2 "c:\\program files\\cypress\\psoc creator\\4.3\\psoc creator\\import\\gnu\\arm\\5.4.1\\arm
 579              		.file 3 "c:\\program files\\cypress\\psoc creator\\4.3\\psoc creator\\import\\gnu\\arm\\5.4.1\\arm
 580              		.file 4 "ErrorCodes.h"
 581              		.file 5 "I2C_Interface.h"
 582              		.file 6 "c:\\program files\\cypress\\psoc creator\\4.3\\psoc creator\\import\\gnu\\arm\\5.4.1\\arm
ARM GAS  C:\Users\LIUX\AppData\Local\Temp\ccf0MqdO.s 			page 20


 583              		.file 7 "Generated_Source\\PSoC5/UART_Debug.h"
 584              		.file 8 "Generated_Source\\PSoC5/CyLib.h"
 585              		.file 9 "Generated_Source\\PSoC5/core_cm3.h"